

Microchip Technology PIC18 LITE Macro Assembler V1.12 build 49521 
                                                                                               Sun Aug 10 03:22:58 2014

HI-TECH Software Omniscient Code Generator (Lite mode) build 49521
     1  0000                     opt subtitle "HI-TECH Software Omniscient Code Generator (Lite mode) build 49521"
     2                           opt subtitle "HI-TECH Software Omniscient Code Generator (Lite mode) build 49521"
     3                           
     4                           opt pagewidth 120
     5                           
     6                           	opt lm
     7                           
     8  0000                     porta	equ	0F80h
     9  0000                     portb	equ	0F81h
    10  0000                     portc	equ	0F82h
    11  0000                     portd	equ	0F83h
    12  0000                     porte	equ	0F84h
    13  0000                     lata	equ	0F89h
    14  0000                     latb	equ	0F8Ah
    15  0000                     latc	equ	0F8Bh
    16  0000                     latd	equ	0F8Ch
    17  0000                     late	equ	0F8Dh
    18  0000                     trisa	equ	0F92h
    19  0000                     trisb	equ	0F93h
    20  0000                     trisc	equ	0F94h
    21  0000                     trisd	equ	0F95h
    22  0000                     trise	equ	0F96h
    23  0000                     pie1	equ	0F9Dh
    24  0000                     pir1	equ	0F9Eh
    25  0000                     ipr1	equ	0F9Fh
    26  0000                     pie2	equ	0FA0h
    27  0000                     pir2	equ	0FA1h
    28  0000                     ipr2	equ	0FA2h
    29  0000                     t3con	equ	0FB1h
    30  0000                     tmr3l	equ	0FB2h
    31  0000                     tmr3h	equ	0FB3h
    32  0000                     ccp1con	equ	0FBDh
    33  0000                     ccpr1l	equ	0FBEh
    34  0000                     ccpr1h	equ	0FBFh
    35  0000                     adcon1	equ	0FC1h
    36  0000                     adcon0	equ	0FC2h
    37  0000                     adresl	equ	0FC3h
    38  0000                     adresh	equ	0FC4h
    39  0000                     sspcon2	equ	0FC5h
    40  0000                     sspcon1	equ	0FC6h
    41  0000                     sspstat	equ	0FC7h
    42  0000                     sspadd	equ	0FC8h
    43  0000                     sspbuf	equ	0FC9h
    44  0000                     t2con	equ	0FCAh
    45  0000                     pr2	equ	0FCBh
    46  0000                     tmr2	equ	0FCCh
    47  0000                     t1con	equ	0FCDh
    48  0000                     tmr1l	equ	0FCEh
    49  0000                     tmr1h	equ	0FCFh
    50  0000                     rcon	equ	0FD0h
    51  0000                     wdtcon	equ	0FD1h
    52  0000                     lvdcon	equ	0FD2h
    53  0000                     osccon	equ	0FD3h
    54  0000                     t0con	equ	0FD5h
    55  0000                     tmr0l	equ	0FD6h
    56  0000                     tmr0h	equ	0FD7h
    57  0000                     status	equ	0FD8h
    58  0000                     fsr2	equ	0FD9h
    59  0000                     fsr2l	equ	0FD9h
    60  0000                     fsr2h	equ	0FDAh
    61  0000                     plusw2	equ	0FDBh
    62  0000                     preinc2	equ	0FDCh
    63  0000                     postdec2	equ	0FDDh
    64  0000                     postinc2	equ	0FDEh
    65  0000                     indf2	equ	0FDFh
    66  0000                     bsr	equ	0FE0h
    67  0000                     fsr1	equ	0FE1h
    68  0000                     fsr1l	equ	0FE1h
    69  0000                     fsr1h	equ	0FE2h
    70  0000                     plusw1	equ	0FE3h
    71  0000                     preinc1	equ	0FE4h
    72  0000                     postdec1	equ	0FE5h
    73  0000                     postinc1	equ	0FE6h
    74  0000                     indf1	equ	0FE7h
    75  0000                     wreg	equ	0FE8h
    76  0000                     fsr0	equ	0FE9h
    77  0000                     fsr0l	equ	0FE9h
    78  0000                     fsr0h	equ	0FEAh
    79  0000                     plusw0	equ	0FEBh
    80  0000                     preinc0	equ	0FECh
    81  0000                     postdec0	equ	0FEDh
    82  0000                     postinc0	equ	0FEEh
    83  0000                     indf0	equ	0FEFh
    84  0000                     intcon3	equ	0FF0h
    85  0000                     intcon2	equ	0FF1h
    86  0000                     intcon	equ	0FF2h
    87  0000                     prod	equ	0FF3h
    88  0000                     prodl	equ	0FF3h
    89  0000                     prodh	equ	0FF4h
    90  0000                     tablat	equ	0FF5h
    91  0000                     tblptr	equ	0FF6h
    92  0000                     tblptrl	equ	0FF6h
    93  0000                     tblptrh	equ	0FF7h
    94  0000                     tblptru	equ	0FF8h
    95  0000                     pcl	equ	0FF9h
    96  0000                     pclat	equ	0FFAh
    97  0000                     pclath	equ	0FFAh
    98  0000                     pclatu	equ	0FFBh
    99  0000                     stkptr	equ	0FFCh
   100  0000                     tosl	equ	0FFDh
   101  0000                     tosh	equ	0FFEh
   102  0000                     tosu	equ	0FFFh
   103                           opt subtitle "HI-TECH Software Omniscient Code Generator (Lite mode) build 49521"
   104                           
   105  0000                     	endm
   106                           opt subtitle "HI-TECH Software Omniscient Code Generator (Lite mode) build 49521"
   107                           
   108                           opt pagewidth 120
   109  0000                     UFRM equ 0F66h ;# 
   110                           opt subtitle "HI-TECH Software Omniscient Code Generator (Lite mode) build 49521"
   111  0000                     UFRML equ 0F66h ;# 
   112                           opt subtitle "HI-TECH Software Omniscient Code Generator (Lite mode) build 49521"
   113  0000                     UFRMH equ 0F67h ;# 
   114                           opt subtitle "HI-TECH Software Omniscient Code Generator (Lite mode) build 49521"
   115  0000                     UIR equ 0F68h ;# 
   116                           opt subtitle "HI-TECH Software Omniscient Code Generator (Lite mode) build 49521"
   117  0000                     UIE equ 0F69h ;# 
   118                           opt subtitle "HI-TECH Software Omniscient Code Generator (Lite mode) build 49521"
   119  0000                     UEIR equ 0F6Ah ;# 
   120                           opt subtitle "HI-TECH Software Omniscient Code Generator (Lite mode) build 49521"
   121  0000                     UEIE equ 0F6Bh ;# 
   122                           opt subtitle "HI-TECH Software Omniscient Code Generator (Lite mode) build 49521"
   123  0000                     USTAT equ 0F6Ch ;# 
   124                           opt subtitle "HI-TECH Software Omniscient Code Generator (Lite mode) build 49521"
   125  0000                     UCON equ 0F6Dh ;# 
   126                           opt subtitle "HI-TECH Software Omniscient Code Generator (Lite mode) build 49521"
   127  0000                     UADDR equ 0F6Eh ;# 
   128                           opt subtitle "HI-TECH Software Omniscient Code Generator (Lite mode) build 49521"
   129  0000                     UCFG equ 0F6Fh ;# 
   130                           opt subtitle "HI-TECH Software Omniscient Code Generator (Lite mode) build 49521"
   131  0000                     UEP0 equ 0F70h ;# 
   132                           opt subtitle "HI-TECH Software Omniscient Code Generator (Lite mode) build 49521"
   133  0000                     UEP1 equ 0F71h ;# 
   134                           opt subtitle "HI-TECH Software Omniscient Code Generator (Lite mode) build 49521"
   135  0000                     UEP2 equ 0F72h ;# 
   136                           opt subtitle "HI-TECH Software Omniscient Code Generator (Lite mode) build 49521"
   137  0000                     UEP3 equ 0F73h ;# 
   138                           opt subtitle "HI-TECH Software Omniscient Code Generator (Lite mode) build 49521"
   139  0000                     UEP4 equ 0F74h ;# 
   140                           opt subtitle "HI-TECH Software Omniscient Code Generator (Lite mode) build 49521"
   141  0000                     UEP5 equ 0F75h ;# 
   142                           opt subtitle "HI-TECH Software Omniscient Code Generator (Lite mode) build 49521"
   143  0000                     UEP6 equ 0F76h ;# 
   144                           opt subtitle "HI-TECH Software Omniscient Code Generator (Lite mode) build 49521"
   145  0000                     UEP7 equ 0F77h ;# 
   146                           opt subtitle "HI-TECH Software Omniscient Code Generator (Lite mode) build 49521"
   147  0000                     UEP8 equ 0F78h ;# 
   148                           opt subtitle "HI-TECH Software Omniscient Code Generator (Lite mode) build 49521"
   149  0000                     UEP9 equ 0F79h ;# 
   150                           opt subtitle "HI-TECH Software Omniscient Code Generator (Lite mode) build 49521"
   151  0000                     UEP10 equ 0F7Ah ;# 
   152                           opt subtitle "HI-TECH Software Omniscient Code Generator (Lite mode) build 49521"
   153  0000                     UEP11 equ 0F7Bh ;# 
   154                           opt subtitle "HI-TECH Software Omniscient Code Generator (Lite mode) build 49521"
   155  0000                     UEP12 equ 0F7Ch ;# 
   156                           opt subtitle "HI-TECH Software Omniscient Code Generator (Lite mode) build 49521"
   157  0000                     UEP13 equ 0F7Dh ;# 
   158                           opt subtitle "HI-TECH Software Omniscient Code Generator (Lite mode) build 49521"
   159  0000                     UEP14 equ 0F7Eh ;# 
   160                           opt subtitle "HI-TECH Software Omniscient Code Generator (Lite mode) build 49521"
   161  0000                     UEP15 equ 0F7Fh ;# 
   162                           opt subtitle "HI-TECH Software Omniscient Code Generator (Lite mode) build 49521"
   163  0000                     PORTA equ 0F80h ;# 
   164                           opt subtitle "HI-TECH Software Omniscient Code Generator (Lite mode) build 49521"
   165  0000                     PORTB equ 0F81h ;# 
   166                           opt subtitle "HI-TECH Software Omniscient Code Generator (Lite mode) build 49521"
   167  0000                     PORTC equ 0F82h ;# 
   168                           opt subtitle "HI-TECH Software Omniscient Code Generator (Lite mode) build 49521"
   169  0000                     PORTE equ 0F84h ;# 
   170                           opt subtitle "HI-TECH Software Omniscient Code Generator (Lite mode) build 49521"
   171  0000                     LATA equ 0F89h ;# 
   172                           opt subtitle "HI-TECH Software Omniscient Code Generator (Lite mode) build 49521"
   173  0000                     LATB equ 0F8Ah ;# 
   174                           opt subtitle "HI-TECH Software Omniscient Code Generator (Lite mode) build 49521"
   175  0000                     LATC equ 0F8Bh ;# 
   176                           opt subtitle "HI-TECH Software Omniscient Code Generator (Lite mode) build 49521"
   177  0000                     TRISA equ 0F92h ;# 
   178                           opt subtitle "HI-TECH Software Omniscient Code Generator (Lite mode) build 49521"
   179  0000                     DDRA equ 0F92h ;# 
   180                           opt subtitle "HI-TECH Software Omniscient Code Generator (Lite mode) build 49521"
   181  0000                     TRISB equ 0F93h ;# 
   182                           opt subtitle "HI-TECH Software Omniscient Code Generator (Lite mode) build 49521"
   183  0000                     DDRB equ 0F93h ;# 
   184                           opt subtitle "HI-TECH Software Omniscient Code Generator (Lite mode) build 49521"
   185  0000                     TRISC equ 0F94h ;# 
   186                           opt subtitle "HI-TECH Software Omniscient Code Generator (Lite mode) build 49521"
   187  0000                     DDRC equ 0F94h ;# 
   188                           opt subtitle "HI-TECH Software Omniscient Code Generator (Lite mode) build 49521"
   189  0000                     OSCTUNE equ 0F9Bh ;# 
   190                           opt subtitle "HI-TECH Software Omniscient Code Generator (Lite mode) build 49521"
   191  0000                     PIE1 equ 0F9Dh ;# 
   192                           opt subtitle "HI-TECH Software Omniscient Code Generator (Lite mode) build 49521"
   193  0000                     PIR1 equ 0F9Eh ;# 
   194                           opt subtitle "HI-TECH Software Omniscient Code Generator (Lite mode) build 49521"
   195  0000                     IPR1 equ 0F9Fh ;# 
   196                           opt subtitle "HI-TECH Software Omniscient Code Generator (Lite mode) build 49521"
   197  0000                     PIE2 equ 0FA0h ;# 
   198                           opt subtitle "HI-TECH Software Omniscient Code Generator (Lite mode) build 49521"
   199  0000                     PIR2 equ 0FA1h ;# 
   200                           opt subtitle "HI-TECH Software Omniscient Code Generator (Lite mode) build 49521"
   201  0000                     IPR2 equ 0FA2h ;# 
   202                           opt subtitle "HI-TECH Software Omniscient Code Generator (Lite mode) build 49521"
   203  0000                     EECON1 equ 0FA6h ;# 
   204                           opt subtitle "HI-TECH Software Omniscient Code Generator (Lite mode) build 49521"
   205  0000                     EECON2 equ 0FA7h ;# 
   206                           opt subtitle "HI-TECH Software Omniscient Code Generator (Lite mode) build 49521"
   207  0000                     EEDATA equ 0FA8h ;# 
   208                           opt subtitle "HI-TECH Software Omniscient Code Generator (Lite mode) build 49521"
   209  0000                     EEADR equ 0FA9h ;# 
   210                           opt subtitle "HI-TECH Software Omniscient Code Generator (Lite mode) build 49521"
   211  0000                     RCSTA equ 0FABh ;# 
   212                           opt subtitle "HI-TECH Software Omniscient Code Generator (Lite mode) build 49521"
   213  0000                     RCSTA1 equ 0FABh ;# 
   214                           opt subtitle "HI-TECH Software Omniscient Code Generator (Lite mode) build 49521"
   215  0000                     TXSTA equ 0FACh ;# 
   216                           opt subtitle "HI-TECH Software Omniscient Code Generator (Lite mode) build 49521"
   217  0000                     TXSTA1 equ 0FACh ;# 
   218                           opt subtitle "HI-TECH Software Omniscient Code Generator (Lite mode) build 49521"
   219  0000                     TXREG equ 0FADh ;# 
   220                           opt subtitle "HI-TECH Software Omniscient Code Generator (Lite mode) build 49521"
   221  0000                     TXREG1 equ 0FADh ;# 
   222                           opt subtitle "HI-TECH Software Omniscient Code Generator (Lite mode) build 49521"
   223  0000                     RCREG equ 0FAEh ;# 
   224                           opt subtitle "HI-TECH Software Omniscient Code Generator (Lite mode) build 49521"
   225  0000                     RCREG1 equ 0FAEh ;# 
   226                           opt subtitle "HI-TECH Software Omniscient Code Generator (Lite mode) build 49521"
   227  0000                     SPBRG equ 0FAFh ;# 
   228                           opt subtitle "HI-TECH Software Omniscient Code Generator (Lite mode) build 49521"
   229  0000                     SPBRG1 equ 0FAFh ;# 
   230                           opt subtitle "HI-TECH Software Omniscient Code Generator (Lite mode) build 49521"
   231  0000                     SPBRGH equ 0FB0h ;# 
   232                           opt subtitle "HI-TECH Software Omniscient Code Generator (Lite mode) build 49521"
   233  0000                     T3CON equ 0FB1h ;# 
   234                           opt subtitle "HI-TECH Software Omniscient Code Generator (Lite mode) build 49521"
   235  0000                     TMR3 equ 0FB2h ;# 
   236                           opt subtitle "HI-TECH Software Omniscient Code Generator (Lite mode) build 49521"
   237  0000                     TMR3L equ 0FB2h ;# 
   238                           opt subtitle "HI-TECH Software Omniscient Code Generator (Lite mode) build 49521"
   239  0000                     TMR3H equ 0FB3h ;# 
   240                           opt subtitle "HI-TECH Software Omniscient Code Generator (Lite mode) build 49521"
   241  0000                     CMCON equ 0FB4h ;# 
   242                           opt subtitle "HI-TECH Software Omniscient Code Generator (Lite mode) build 49521"
   243  0000                     CVRCON equ 0FB5h ;# 
   244                           opt subtitle "HI-TECH Software Omniscient Code Generator (Lite mode) build 49521"
   245  0000                     ECCP1AS equ 0FB6h ;# 
   246                           opt subtitle "HI-TECH Software Omniscient Code Generator (Lite mode) build 49521"
   247  0000                     CCP1AS equ 0FB6h ;# 
   248                           opt subtitle "HI-TECH Software Omniscient Code Generator (Lite mode) build 49521"
   249  0000                     ECCP1DEL equ 0FB7h ;# 
   250                           opt subtitle "HI-TECH Software Omniscient Code Generator (Lite mode) build 49521"
   251  0000                     CCP1DEL equ 0FB7h ;# 
   252                           opt subtitle "HI-TECH Software Omniscient Code Generator (Lite mode) build 49521"
   253  0000                     BAUDCON equ 0FB8h ;# 
   254                           opt subtitle "HI-TECH Software Omniscient Code Generator (Lite mode) build 49521"
   255  0000                     BAUDCTL equ 0FB8h ;# 
   256                           opt subtitle "HI-TECH Software Omniscient Code Generator (Lite mode) build 49521"
   257  0000                     CCP2CON equ 0FBAh ;# 
   258                           opt subtitle "HI-TECH Software Omniscient Code Generator (Lite mode) build 49521"
   259  0000                     CCPR2 equ 0FBBh ;# 
   260                           opt subtitle "HI-TECH Software Omniscient Code Generator (Lite mode) build 49521"
   261  0000                     CCPR2L equ 0FBBh ;# 
   262                           opt subtitle "HI-TECH Software Omniscient Code Generator (Lite mode) build 49521"
   263  0000                     CCPR2H equ 0FBCh ;# 
   264                           opt subtitle "HI-TECH Software Omniscient Code Generator (Lite mode) build 49521"
   265  0000                     CCP1CON equ 0FBDh ;# 
   266                           opt subtitle "HI-TECH Software Omniscient Code Generator (Lite mode) build 49521"
   267  0000                     CCPR1 equ 0FBEh ;# 
   268                           opt subtitle "HI-TECH Software Omniscient Code Generator (Lite mode) build 49521"
   269  0000                     CCPR1L equ 0FBEh ;# 
   270                           opt subtitle "HI-TECH Software Omniscient Code Generator (Lite mode) build 49521"
   271  0000                     CCPR1H equ 0FBFh ;# 
   272                           opt subtitle "HI-TECH Software Omniscient Code Generator (Lite mode) build 49521"
   273  0000                     ADCON2 equ 0FC0h ;# 
   274                           opt subtitle "HI-TECH Software Omniscient Code Generator (Lite mode) build 49521"
   275  0000                     ADCON1 equ 0FC1h ;# 
   276                           opt subtitle "HI-TECH Software Omniscient Code Generator (Lite mode) build 49521"
   277  0000                     ADCON0 equ 0FC2h ;# 
   278                           opt subtitle "HI-TECH Software Omniscient Code Generator (Lite mode) build 49521"
   279  0000                     ADRES equ 0FC3h ;# 
   280                           opt subtitle "HI-TECH Software Omniscient Code Generator (Lite mode) build 49521"
   281  0000                     ADRESL equ 0FC3h ;# 
   282                           opt subtitle "HI-TECH Software Omniscient Code Generator (Lite mode) build 49521"
   283  0000                     ADRESH equ 0FC4h ;# 
   284                           opt subtitle "HI-TECH Software Omniscient Code Generator (Lite mode) build 49521"
   285  0000                     SSPCON2 equ 0FC5h ;# 
   286                           opt subtitle "HI-TECH Software Omniscient Code Generator (Lite mode) build 49521"
   287  0000                     SSPCON1 equ 0FC6h ;# 
   288                           opt subtitle "HI-TECH Software Omniscient Code Generator (Lite mode) build 49521"
   289  0000                     SSPSTAT equ 0FC7h ;# 
   290                           opt subtitle "HI-TECH Software Omniscient Code Generator (Lite mode) build 49521"
   291  0000                     SSPADD equ 0FC8h ;# 
   292                           opt subtitle "HI-TECH Software Omniscient Code Generator (Lite mode) build 49521"
   293  0000                     SSPBUF equ 0FC9h ;# 
   294                           opt subtitle "HI-TECH Software Omniscient Code Generator (Lite mode) build 49521"
   295  0000                     T2CON equ 0FCAh ;# 
   296                           opt subtitle "HI-TECH Software Omniscient Code Generator (Lite mode) build 49521"
   297  0000                     PR2 equ 0FCBh ;# 
   298                           opt subtitle "HI-TECH Software Omniscient Code Generator (Lite mode) build 49521"
   299  0000                     MEMCON equ 0FCBh ;# 
   300                           opt subtitle "HI-TECH Software Omniscient Code Generator (Lite mode) build 49521"
   301  0000                     TMR2 equ 0FCCh ;# 
   302                           opt subtitle "HI-TECH Software Omniscient Code Generator (Lite mode) build 49521"
   303  0000                     T1CON equ 0FCDh ;# 
   304                           opt subtitle "HI-TECH Software Omniscient Code Generator (Lite mode) build 49521"
   305  0000                     TMR1 equ 0FCEh ;# 
   306                           opt subtitle "HI-TECH Software Omniscient Code Generator (Lite mode) build 49521"
   307  0000                     TMR1L equ 0FCEh ;# 
   308                           opt subtitle "HI-TECH Software Omniscient Code Generator (Lite mode) build 49521"
   309  0000                     TMR1H equ 0FCFh ;# 
   310                           opt subtitle "HI-TECH Software Omniscient Code Generator (Lite mode) build 49521"
   311  0000                     RCON equ 0FD0h ;# 
   312                           opt subtitle "HI-TECH Software Omniscient Code Generator (Lite mode) build 49521"
   313  0000                     WDTCON equ 0FD1h ;# 
   314                           opt subtitle "HI-TECH Software Omniscient Code Generator (Lite mode) build 49521"
   315  0000                     HLVDCON equ 0FD2h ;# 
   316                           opt subtitle "HI-TECH Software Omniscient Code Generator (Lite mode) build 49521"
   317  0000                     LVDCON equ 0FD2h ;# 
   318                           opt subtitle "HI-TECH Software Omniscient Code Generator (Lite mode) build 49521"
   319  0000                     OSCCON equ 0FD3h ;# 
   320                           opt subtitle "HI-TECH Software Omniscient Code Generator (Lite mode) build 49521"
   321  0000                     T0CON equ 0FD5h ;# 
   322                           opt subtitle "HI-TECH Software Omniscient Code Generator (Lite mode) build 49521"
   323  0000                     TMR0 equ 0FD6h ;# 
   324                           opt subtitle "HI-TECH Software Omniscient Code Generator (Lite mode) build 49521"
   325  0000                     TMR0L equ 0FD6h ;# 
   326                           opt subtitle "HI-TECH Software Omniscient Code Generator (Lite mode) build 49521"
   327  0000                     TMR0H equ 0FD7h ;# 
   328                           opt subtitle "HI-TECH Software Omniscient Code Generator (Lite mode) build 49521"
   329  0000                     STATUS equ 0FD8h ;# 
   330                           opt subtitle "HI-TECH Software Omniscient Code Generator (Lite mode) build 49521"
   331  0000                     FSR2 equ 0FD9h ;# 
   332                           opt subtitle "HI-TECH Software Omniscient Code Generator (Lite mode) build 49521"
   333  0000                     FSR2L equ 0FD9h ;# 
   334                           opt subtitle "HI-TECH Software Omniscient Code Generator (Lite mode) build 49521"
   335  0000                     FSR2H equ 0FDAh ;# 
   336                           opt subtitle "HI-TECH Software Omniscient Code Generator (Lite mode) build 49521"
   337  0000                     PLUSW2 equ 0FDBh ;# 
   338                           opt subtitle "HI-TECH Software Omniscient Code Generator (Lite mode) build 49521"
   339  0000                     PREINC2 equ 0FDCh ;# 
   340                           opt subtitle "HI-TECH Software Omniscient Code Generator (Lite mode) build 49521"
   341  0000                     POSTDEC2 equ 0FDDh ;# 
   342                           opt subtitle "HI-TECH Software Omniscient Code Generator (Lite mode) build 49521"
   343  0000                     POSTINC2 equ 0FDEh ;# 
   344                           opt subtitle "HI-TECH Software Omniscient Code Generator (Lite mode) build 49521"
   345  0000                     INDF2 equ 0FDFh ;# 
   346                           opt subtitle "HI-TECH Software Omniscient Code Generator (Lite mode) build 49521"
   347  0000                     BSR equ 0FE0h ;# 
   348                           opt subtitle "HI-TECH Software Omniscient Code Generator (Lite mode) build 49521"
   349  0000                     FSR1 equ 0FE1h ;# 
   350                           opt subtitle "HI-TECH Software Omniscient Code Generator (Lite mode) build 49521"
   351  0000                     FSR1L equ 0FE1h ;# 
   352                           opt subtitle "HI-TECH Software Omniscient Code Generator (Lite mode) build 49521"
   353  0000                     FSR1H equ 0FE2h ;# 
   354                           opt subtitle "HI-TECH Software Omniscient Code Generator (Lite mode) build 49521"
   355  0000                     PLUSW1 equ 0FE3h ;# 
   356                           opt subtitle "HI-TECH Software Omniscient Code Generator (Lite mode) build 49521"
   357  0000                     PREINC1 equ 0FE4h ;# 
   358                           opt subtitle "HI-TECH Software Omniscient Code Generator (Lite mode) build 49521"
   359  0000                     POSTDEC1 equ 0FE5h ;# 
   360                           opt subtitle "HI-TECH Software Omniscient Code Generator (Lite mode) build 49521"
   361  0000                     POSTINC1 equ 0FE6h ;# 
   362                           opt subtitle "HI-TECH Software Omniscient Code Generator (Lite mode) build 49521"
   363  0000                     INDF1 equ 0FE7h ;# 
   364                           opt subtitle "HI-TECH Software Omniscient Code Generator (Lite mode) build 49521"
   365  0000                     WREG equ 0FE8h ;# 
   366                           opt subtitle "HI-TECH Software Omniscient Code Generator (Lite mode) build 49521"
   367  0000                     FSR0 equ 0FE9h ;# 
   368                           opt subtitle "HI-TECH Software Omniscient Code Generator (Lite mode) build 49521"
   369  0000                     FSR0L equ 0FE9h ;# 
   370                           opt subtitle "HI-TECH Software Omniscient Code Generator (Lite mode) build 49521"
   371  0000                     FSR0H equ 0FEAh ;# 
   372                           opt subtitle "HI-TECH Software Omniscient Code Generator (Lite mode) build 49521"
   373  0000                     PLUSW0 equ 0FEBh ;# 
   374                           opt subtitle "HI-TECH Software Omniscient Code Generator (Lite mode) build 49521"
   375  0000                     PREINC0 equ 0FECh ;# 
   376                           opt subtitle "HI-TECH Software Omniscient Code Generator (Lite mode) build 49521"
   377  0000                     POSTDEC0 equ 0FEDh ;# 
   378                           opt subtitle "HI-TECH Software Omniscient Code Generator (Lite mode) build 49521"
   379  0000                     POSTINC0 equ 0FEEh ;# 
   380                           opt subtitle "HI-TECH Software Omniscient Code Generator (Lite mode) build 49521"
   381  0000                     INDF0 equ 0FEFh ;# 
   382                           opt subtitle "HI-TECH Software Omniscient Code Generator (Lite mode) build 49521"
   383  0000                     INTCON3 equ 0FF0h ;# 
   384                           opt subtitle "HI-TECH Software Omniscient Code Generator (Lite mode) build 49521"
   385  0000                     INTCON2 equ 0FF1h ;# 
   386                           opt subtitle "HI-TECH Software Omniscient Code Generator (Lite mode) build 49521"
   387  0000                     INTCON equ 0FF2h ;# 
   388                           opt subtitle "HI-TECH Software Omniscient Code Generator (Lite mode) build 49521"
   389  0000                     PROD equ 0FF3h ;# 
   390                           opt subtitle "HI-TECH Software Omniscient Code Generator (Lite mode) build 49521"
   391  0000                     PRODL equ 0FF3h ;# 
   392                           opt subtitle "HI-TECH Software Omniscient Code Generator (Lite mode) build 49521"
   393  0000                     PRODH equ 0FF4h ;# 
   394                           opt subtitle "HI-TECH Software Omniscient Code Generator (Lite mode) build 49521"
   395  0000                     TABLAT equ 0FF5h ;# 
   396                           opt subtitle "HI-TECH Software Omniscient Code Generator (Lite mode) build 49521"
   397  0000                     TBLPTR equ 0FF6h ;# 
   398                           opt subtitle "HI-TECH Software Omniscient Code Generator (Lite mode) build 49521"
   399  0000                     TBLPTRL equ 0FF6h ;# 
   400                           opt subtitle "HI-TECH Software Omniscient Code Generator (Lite mode) build 49521"
   401  0000                     TBLPTRH equ 0FF7h ;# 
   402                           opt subtitle "HI-TECH Software Omniscient Code Generator (Lite mode) build 49521"
   403  0000                     TBLPTRU equ 0FF8h ;# 
   404                           opt subtitle "HI-TECH Software Omniscient Code Generator (Lite mode) build 49521"
   405  0000                     PCLAT equ 0FF9h ;# 
   406                           opt subtitle "HI-TECH Software Omniscient Code Generator (Lite mode) build 49521"
   407  0000                     PC equ 0FF9h ;# 
   408                           opt subtitle "HI-TECH Software Omniscient Code Generator (Lite mode) build 49521"
   409  0000                     PCL equ 0FF9h ;# 
   410                           opt subtitle "HI-TECH Software Omniscient Code Generator (Lite mode) build 49521"
   411  0000                     PCLATH equ 0FFAh ;# 
   412                           opt subtitle "HI-TECH Software Omniscient Code Generator (Lite mode) build 49521"
   413  0000                     PCLATU equ 0FFBh ;# 
   414                           opt subtitle "HI-TECH Software Omniscient Code Generator (Lite mode) build 49521"
   415  0000                     STKPTR equ 0FFCh ;# 
   416                           opt subtitle "HI-TECH Software Omniscient Code Generator (Lite mode) build 49521"
   417  0000                     TOS equ 0FFDh ;# 
   418                           opt subtitle "HI-TECH Software Omniscient Code Generator (Lite mode) build 49521"
   419  0000                     TOSL equ 0FFDh ;# 
   420                           opt subtitle "HI-TECH Software Omniscient Code Generator (Lite mode) build 49521"
   421  0000                     TOSH equ 0FFEh ;# 
   422                           opt subtitle "HI-TECH Software Omniscient Code Generator (Lite mode) build 49521"
   423  0000                     TOSU equ 0FFFh ;# 
   424                           opt subtitle "HI-TECH Software Omniscient Code Generator (Lite mode) build 49521"
   425  0000                     UFRM equ 0F66h ;# 
   426                           opt subtitle "HI-TECH Software Omniscient Code Generator (Lite mode) build 49521"
   427  0000                     UFRML equ 0F66h ;# 
   428                           opt subtitle "HI-TECH Software Omniscient Code Generator (Lite mode) build 49521"
   429  0000                     UFRMH equ 0F67h ;# 
   430                           opt subtitle "HI-TECH Software Omniscient Code Generator (Lite mode) build 49521"
   431  0000                     UIR equ 0F68h ;# 
   432                           opt subtitle "HI-TECH Software Omniscient Code Generator (Lite mode) build 49521"
   433  0000                     UIE equ 0F69h ;# 
   434                           opt subtitle "HI-TECH Software Omniscient Code Generator (Lite mode) build 49521"
   435  0000                     UEIR equ 0F6Ah ;# 
   436                           opt subtitle "HI-TECH Software Omniscient Code Generator (Lite mode) build 49521"
   437  0000                     UEIE equ 0F6Bh ;# 
   438                           opt subtitle "HI-TECH Software Omniscient Code Generator (Lite mode) build 49521"
   439  0000                     USTAT equ 0F6Ch ;# 
   440                           opt subtitle "HI-TECH Software Omniscient Code Generator (Lite mode) build 49521"
   441  0000                     UCON equ 0F6Dh ;# 
   442                           opt subtitle "HI-TECH Software Omniscient Code Generator (Lite mode) build 49521"
   443  0000                     UADDR equ 0F6Eh ;# 
   444                           opt subtitle "HI-TECH Software Omniscient Code Generator (Lite mode) build 49521"
   445  0000                     UCFG equ 0F6Fh ;# 
   446                           opt subtitle "HI-TECH Software Omniscient Code Generator (Lite mode) build 49521"
   447  0000                     UEP0 equ 0F70h ;# 
   448                           opt subtitle "HI-TECH Software Omniscient Code Generator (Lite mode) build 49521"
   449  0000                     UEP1 equ 0F71h ;# 
   450                           opt subtitle "HI-TECH Software Omniscient Code Generator (Lite mode) build 49521"
   451  0000                     UEP2 equ 0F72h ;# 
   452                           opt subtitle "HI-TECH Software Omniscient Code Generator (Lite mode) build 49521"
   453  0000                     UEP3 equ 0F73h ;# 
   454                           opt subtitle "HI-TECH Software Omniscient Code Generator (Lite mode) build 49521"
   455  0000                     UEP4 equ 0F74h ;# 
   456                           opt subtitle "HI-TECH Software Omniscient Code Generator (Lite mode) build 49521"
   457  0000                     UEP5 equ 0F75h ;# 
   458                           opt subtitle "HI-TECH Software Omniscient Code Generator (Lite mode) build 49521"
   459  0000                     UEP6 equ 0F76h ;# 
   460                           opt subtitle "HI-TECH Software Omniscient Code Generator (Lite mode) build 49521"
   461  0000                     UEP7 equ 0F77h ;# 
   462                           opt subtitle "HI-TECH Software Omniscient Code Generator (Lite mode) build 49521"
   463  0000                     UEP8 equ 0F78h ;# 
   464                           opt subtitle "HI-TECH Software Omniscient Code Generator (Lite mode) build 49521"
   465  0000                     UEP9 equ 0F79h ;# 
   466                           opt subtitle "HI-TECH Software Omniscient Code Generator (Lite mode) build 49521"
   467  0000                     UEP10 equ 0F7Ah ;# 
   468                           opt subtitle "HI-TECH Software Omniscient Code Generator (Lite mode) build 49521"
   469  0000                     UEP11 equ 0F7Bh ;# 
   470                           opt subtitle "HI-TECH Software Omniscient Code Generator (Lite mode) build 49521"
   471  0000                     UEP12 equ 0F7Ch ;# 
   472                           opt subtitle "HI-TECH Software Omniscient Code Generator (Lite mode) build 49521"
   473  0000                     UEP13 equ 0F7Dh ;# 
   474                           opt subtitle "HI-TECH Software Omniscient Code Generator (Lite mode) build 49521"
   475  0000                     UEP14 equ 0F7Eh ;# 
   476                           opt subtitle "HI-TECH Software Omniscient Code Generator (Lite mode) build 49521"
   477  0000                     UEP15 equ 0F7Fh ;# 
   478                           opt subtitle "HI-TECH Software Omniscient Code Generator (Lite mode) build 49521"
   479  0000                     PORTA equ 0F80h ;# 
   480                           opt subtitle "HI-TECH Software Omniscient Code Generator (Lite mode) build 49521"
   481  0000                     PORTB equ 0F81h ;# 
   482                           opt subtitle "HI-TECH Software Omniscient Code Generator (Lite mode) build 49521"
   483  0000                     PORTC equ 0F82h ;# 
   484                           opt subtitle "HI-TECH Software Omniscient Code Generator (Lite mode) build 49521"
   485  0000                     PORTE equ 0F84h ;# 
   486                           opt subtitle "HI-TECH Software Omniscient Code Generator (Lite mode) build 49521"
   487  0000                     LATA equ 0F89h ;# 
   488                           opt subtitle "HI-TECH Software Omniscient Code Generator (Lite mode) build 49521"
   489  0000                     LATB equ 0F8Ah ;# 
   490                           opt subtitle "HI-TECH Software Omniscient Code Generator (Lite mode) build 49521"
   491  0000                     LATC equ 0F8Bh ;# 
   492                           opt subtitle "HI-TECH Software Omniscient Code Generator (Lite mode) build 49521"
   493  0000                     TRISA equ 0F92h ;# 
   494                           opt subtitle "HI-TECH Software Omniscient Code Generator (Lite mode) build 49521"
   495  0000                     DDRA equ 0F92h ;# 
   496                           opt subtitle "HI-TECH Software Omniscient Code Generator (Lite mode) build 49521"
   497  0000                     TRISB equ 0F93h ;# 
   498                           opt subtitle "HI-TECH Software Omniscient Code Generator (Lite mode) build 49521"
   499  0000                     DDRB equ 0F93h ;# 
   500                           opt subtitle "HI-TECH Software Omniscient Code Generator (Lite mode) build 49521"
   501  0000                     TRISC equ 0F94h ;# 
   502                           opt subtitle "HI-TECH Software Omniscient Code Generator (Lite mode) build 49521"
   503  0000                     DDRC equ 0F94h ;# 
   504                           opt subtitle "HI-TECH Software Omniscient Code Generator (Lite mode) build 49521"
   505  0000                     OSCTUNE equ 0F9Bh ;# 
   506                           opt subtitle "HI-TECH Software Omniscient Code Generator (Lite mode) build 49521"
   507  0000                     PIE1 equ 0F9Dh ;# 
   508                           opt subtitle "HI-TECH Software Omniscient Code Generator (Lite mode) build 49521"
   509  0000                     PIR1 equ 0F9Eh ;# 
   510                           opt subtitle "HI-TECH Software Omniscient Code Generator (Lite mode) build 49521"
   511  0000                     IPR1 equ 0F9Fh ;# 
   512                           opt subtitle "HI-TECH Software Omniscient Code Generator (Lite mode) build 49521"
   513  0000                     PIE2 equ 0FA0h ;# 
   514                           opt subtitle "HI-TECH Software Omniscient Code Generator (Lite mode) build 49521"
   515  0000                     PIR2 equ 0FA1h ;# 
   516                           opt subtitle "HI-TECH Software Omniscient Code Generator (Lite mode) build 49521"
   517  0000                     IPR2 equ 0FA2h ;# 
   518                           opt subtitle "HI-TECH Software Omniscient Code Generator (Lite mode) build 49521"
   519  0000                     EECON1 equ 0FA6h ;# 
   520                           opt subtitle "HI-TECH Software Omniscient Code Generator (Lite mode) build 49521"
   521  0000                     EECON2 equ 0FA7h ;# 
   522                           opt subtitle "HI-TECH Software Omniscient Code Generator (Lite mode) build 49521"
   523  0000                     EEDATA equ 0FA8h ;# 
   524                           opt subtitle "HI-TECH Software Omniscient Code Generator (Lite mode) build 49521"
   525  0000                     EEADR equ 0FA9h ;# 
   526                           opt subtitle "HI-TECH Software Omniscient Code Generator (Lite mode) build 49521"
   527  0000                     RCSTA equ 0FABh ;# 
   528                           opt subtitle "HI-TECH Software Omniscient Code Generator (Lite mode) build 49521"
   529  0000                     RCSTA1 equ 0FABh ;# 
   530                           opt subtitle "HI-TECH Software Omniscient Code Generator (Lite mode) build 49521"
   531  0000                     TXSTA equ 0FACh ;# 
   532                           opt subtitle "HI-TECH Software Omniscient Code Generator (Lite mode) build 49521"
   533  0000                     TXSTA1 equ 0FACh ;# 
   534                           opt subtitle "HI-TECH Software Omniscient Code Generator (Lite mode) build 49521"
   535  0000                     TXREG equ 0FADh ;# 
   536                           opt subtitle "HI-TECH Software Omniscient Code Generator (Lite mode) build 49521"
   537  0000                     TXREG1 equ 0FADh ;# 
   538                           opt subtitle "HI-TECH Software Omniscient Code Generator (Lite mode) build 49521"
   539  0000                     RCREG equ 0FAEh ;# 
   540                           opt subtitle "HI-TECH Software Omniscient Code Generator (Lite mode) build 49521"
   541  0000                     RCREG1 equ 0FAEh ;# 
   542                           opt subtitle "HI-TECH Software Omniscient Code Generator (Lite mode) build 49521"
   543  0000                     SPBRG equ 0FAFh ;# 
   544                           opt subtitle "HI-TECH Software Omniscient Code Generator (Lite mode) build 49521"
   545  0000                     SPBRG1 equ 0FAFh ;# 
   546                           opt subtitle "HI-TECH Software Omniscient Code Generator (Lite mode) build 49521"
   547  0000                     SPBRGH equ 0FB0h ;# 
   548                           opt subtitle "HI-TECH Software Omniscient Code Generator (Lite mode) build 49521"
   549  0000                     T3CON equ 0FB1h ;# 
   550                           opt subtitle "HI-TECH Software Omniscient Code Generator (Lite mode) build 49521"
   551  0000                     TMR3 equ 0FB2h ;# 
   552                           opt subtitle "HI-TECH Software Omniscient Code Generator (Lite mode) build 49521"
   553  0000                     TMR3L equ 0FB2h ;# 
   554                           opt subtitle "HI-TECH Software Omniscient Code Generator (Lite mode) build 49521"
   555  0000                     TMR3H equ 0FB3h ;# 
   556                           opt subtitle "HI-TECH Software Omniscient Code Generator (Lite mode) build 49521"
   557  0000                     CMCON equ 0FB4h ;# 
   558                           opt subtitle "HI-TECH Software Omniscient Code Generator (Lite mode) build 49521"
   559  0000                     CVRCON equ 0FB5h ;# 
   560                           opt subtitle "HI-TECH Software Omniscient Code Generator (Lite mode) build 49521"
   561  0000                     ECCP1AS equ 0FB6h ;# 
   562                           opt subtitle "HI-TECH Software Omniscient Code Generator (Lite mode) build 49521"
   563  0000                     CCP1AS equ 0FB6h ;# 
   564                           opt subtitle "HI-TECH Software Omniscient Code Generator (Lite mode) build 49521"
   565  0000                     ECCP1DEL equ 0FB7h ;# 
   566                           opt subtitle "HI-TECH Software Omniscient Code Generator (Lite mode) build 49521"
   567  0000                     CCP1DEL equ 0FB7h ;# 
   568                           opt subtitle "HI-TECH Software Omniscient Code Generator (Lite mode) build 49521"
   569  0000                     BAUDCON equ 0FB8h ;# 
   570                           opt subtitle "HI-TECH Software Omniscient Code Generator (Lite mode) build 49521"
   571  0000                     BAUDCTL equ 0FB8h ;# 
   572                           opt subtitle "HI-TECH Software Omniscient Code Generator (Lite mode) build 49521"
   573  0000                     CCP2CON equ 0FBAh ;# 
   574                           opt subtitle "HI-TECH Software Omniscient Code Generator (Lite mode) build 49521"
   575  0000                     CCPR2 equ 0FBBh ;# 
   576                           opt subtitle "HI-TECH Software Omniscient Code Generator (Lite mode) build 49521"
   577  0000                     CCPR2L equ 0FBBh ;# 
   578                           opt subtitle "HI-TECH Software Omniscient Code Generator (Lite mode) build 49521"
   579  0000                     CCPR2H equ 0FBCh ;# 
   580                           opt subtitle "HI-TECH Software Omniscient Code Generator (Lite mode) build 49521"
   581  0000                     CCP1CON equ 0FBDh ;# 
   582                           opt subtitle "HI-TECH Software Omniscient Code Generator (Lite mode) build 49521"
   583  0000                     CCPR1 equ 0FBEh ;# 
   584                           opt subtitle "HI-TECH Software Omniscient Code Generator (Lite mode) build 49521"
   585  0000                     CCPR1L equ 0FBEh ;# 
   586                           opt subtitle "HI-TECH Software Omniscient Code Generator (Lite mode) build 49521"
   587  0000                     CCPR1H equ 0FBFh ;# 
   588                           opt subtitle "HI-TECH Software Omniscient Code Generator (Lite mode) build 49521"
   589  0000                     ADCON2 equ 0FC0h ;# 
   590                           opt subtitle "HI-TECH Software Omniscient Code Generator (Lite mode) build 49521"
   591  0000                     ADCON1 equ 0FC1h ;# 
   592                           opt subtitle "HI-TECH Software Omniscient Code Generator (Lite mode) build 49521"
   593  0000                     ADCON0 equ 0FC2h ;# 
   594                           opt subtitle "HI-TECH Software Omniscient Code Generator (Lite mode) build 49521"
   595  0000                     ADRES equ 0FC3h ;# 
   596                           opt subtitle "HI-TECH Software Omniscient Code Generator (Lite mode) build 49521"
   597  0000                     ADRESL equ 0FC3h ;# 
   598                           opt subtitle "HI-TECH Software Omniscient Code Generator (Lite mode) build 49521"
   599  0000                     ADRESH equ 0FC4h ;# 
   600                           opt subtitle "HI-TECH Software Omniscient Code Generator (Lite mode) build 49521"
   601  0000                     SSPCON2 equ 0FC5h ;# 
   602                           opt subtitle "HI-TECH Software Omniscient Code Generator (Lite mode) build 49521"
   603  0000                     SSPCON1 equ 0FC6h ;# 
   604                           opt subtitle "HI-TECH Software Omniscient Code Generator (Lite mode) build 49521"
   605  0000                     SSPSTAT equ 0FC7h ;# 
   606                           opt subtitle "HI-TECH Software Omniscient Code Generator (Lite mode) build 49521"
   607  0000                     SSPADD equ 0FC8h ;# 
   608                           opt subtitle "HI-TECH Software Omniscient Code Generator (Lite mode) build 49521"
   609  0000                     SSPBUF equ 0FC9h ;# 
   610                           opt subtitle "HI-TECH Software Omniscient Code Generator (Lite mode) build 49521"
   611  0000                     T2CON equ 0FCAh ;# 
   612                           opt subtitle "HI-TECH Software Omniscient Code Generator (Lite mode) build 49521"
   613  0000                     PR2 equ 0FCBh ;# 
   614                           opt subtitle "HI-TECH Software Omniscient Code Generator (Lite mode) build 49521"
   615  0000                     MEMCON equ 0FCBh ;# 
   616                           opt subtitle "HI-TECH Software Omniscient Code Generator (Lite mode) build 49521"
   617  0000                     TMR2 equ 0FCCh ;# 
   618                           opt subtitle "HI-TECH Software Omniscient Code Generator (Lite mode) build 49521"
   619  0000                     T1CON equ 0FCDh ;# 
   620                           opt subtitle "HI-TECH Software Omniscient Code Generator (Lite mode) build 49521"
   621  0000                     TMR1 equ 0FCEh ;# 
   622                           opt subtitle "HI-TECH Software Omniscient Code Generator (Lite mode) build 49521"
   623  0000                     TMR1L equ 0FCEh ;# 
   624                           opt subtitle "HI-TECH Software Omniscient Code Generator (Lite mode) build 49521"
   625  0000                     TMR1H equ 0FCFh ;# 
   626                           opt subtitle "HI-TECH Software Omniscient Code Generator (Lite mode) build 49521"
   627  0000                     RCON equ 0FD0h ;# 
   628                           opt subtitle "HI-TECH Software Omniscient Code Generator (Lite mode) build 49521"
   629  0000                     WDTCON equ 0FD1h ;# 
   630                           opt subtitle "HI-TECH Software Omniscient Code Generator (Lite mode) build 49521"
   631  0000                     HLVDCON equ 0FD2h ;# 
   632                           opt subtitle "HI-TECH Software Omniscient Code Generator (Lite mode) build 49521"
   633  0000                     LVDCON equ 0FD2h ;# 
   634                           opt subtitle "HI-TECH Software Omniscient Code Generator (Lite mode) build 49521"
   635  0000                     OSCCON equ 0FD3h ;# 
   636                           opt subtitle "HI-TECH Software Omniscient Code Generator (Lite mode) build 49521"
   637  0000                     T0CON equ 0FD5h ;# 
   638                           opt subtitle "HI-TECH Software Omniscient Code Generator (Lite mode) build 49521"
   639  0000                     TMR0 equ 0FD6h ;# 
   640                           opt subtitle "HI-TECH Software Omniscient Code Generator (Lite mode) build 49521"
   641  0000                     TMR0L equ 0FD6h ;# 
   642                           opt subtitle "HI-TECH Software Omniscient Code Generator (Lite mode) build 49521"
   643  0000                     TMR0H equ 0FD7h ;# 
   644                           opt subtitle "HI-TECH Software Omniscient Code Generator (Lite mode) build 49521"
   645  0000                     STATUS equ 0FD8h ;# 
   646                           opt subtitle "HI-TECH Software Omniscient Code Generator (Lite mode) build 49521"
   647  0000                     FSR2 equ 0FD9h ;# 
   648                           opt subtitle "HI-TECH Software Omniscient Code Generator (Lite mode) build 49521"
   649  0000                     FSR2L equ 0FD9h ;# 
   650                           opt subtitle "HI-TECH Software Omniscient Code Generator (Lite mode) build 49521"
   651  0000                     FSR2H equ 0FDAh ;# 
   652                           opt subtitle "HI-TECH Software Omniscient Code Generator (Lite mode) build 49521"
   653  0000                     PLUSW2 equ 0FDBh ;# 
   654                           opt subtitle "HI-TECH Software Omniscient Code Generator (Lite mode) build 49521"
   655  0000                     PREINC2 equ 0FDCh ;# 
   656                           opt subtitle "HI-TECH Software Omniscient Code Generator (Lite mode) build 49521"
   657  0000                     POSTDEC2 equ 0FDDh ;# 
   658                           opt subtitle "HI-TECH Software Omniscient Code Generator (Lite mode) build 49521"
   659  0000                     POSTINC2 equ 0FDEh ;# 
   660                           opt subtitle "HI-TECH Software Omniscient Code Generator (Lite mode) build 49521"
   661  0000                     INDF2 equ 0FDFh ;# 
   662                           opt subtitle "HI-TECH Software Omniscient Code Generator (Lite mode) build 49521"
   663  0000                     BSR equ 0FE0h ;# 
   664                           opt subtitle "HI-TECH Software Omniscient Code Generator (Lite mode) build 49521"
   665  0000                     FSR1 equ 0FE1h ;# 
   666                           opt subtitle "HI-TECH Software Omniscient Code Generator (Lite mode) build 49521"
   667  0000                     FSR1L equ 0FE1h ;# 
   668                           opt subtitle "HI-TECH Software Omniscient Code Generator (Lite mode) build 49521"
   669  0000                     FSR1H equ 0FE2h ;# 
   670                           opt subtitle "HI-TECH Software Omniscient Code Generator (Lite mode) build 49521"
   671  0000                     PLUSW1 equ 0FE3h ;# 
   672                           opt subtitle "HI-TECH Software Omniscient Code Generator (Lite mode) build 49521"
   673  0000                     PREINC1 equ 0FE4h ;# 
   674                           opt subtitle "HI-TECH Software Omniscient Code Generator (Lite mode) build 49521"
   675  0000                     POSTDEC1 equ 0FE5h ;# 
   676                           opt subtitle "HI-TECH Software Omniscient Code Generator (Lite mode) build 49521"
   677  0000                     POSTINC1 equ 0FE6h ;# 
   678                           opt subtitle "HI-TECH Software Omniscient Code Generator (Lite mode) build 49521"
   679  0000                     INDF1 equ 0FE7h ;# 
   680                           opt subtitle "HI-TECH Software Omniscient Code Generator (Lite mode) build 49521"
   681  0000                     WREG equ 0FE8h ;# 
   682                           opt subtitle "HI-TECH Software Omniscient Code Generator (Lite mode) build 49521"
   683  0000                     FSR0 equ 0FE9h ;# 
   684                           opt subtitle "HI-TECH Software Omniscient Code Generator (Lite mode) build 49521"
   685  0000                     FSR0L equ 0FE9h ;# 
   686                           opt subtitle "HI-TECH Software Omniscient Code Generator (Lite mode) build 49521"
   687  0000                     FSR0H equ 0FEAh ;# 
   688                           opt subtitle "HI-TECH Software Omniscient Code Generator (Lite mode) build 49521"
   689  0000                     PLUSW0 equ 0FEBh ;# 
   690                           opt subtitle "HI-TECH Software Omniscient Code Generator (Lite mode) build 49521"
   691  0000                     PREINC0 equ 0FECh ;# 
   692                           opt subtitle "HI-TECH Software Omniscient Code Generator (Lite mode) build 49521"
   693  0000                     POSTDEC0 equ 0FEDh ;# 
   694                           opt subtitle "HI-TECH Software Omniscient Code Generator (Lite mode) build 49521"
   695  0000                     POSTINC0 equ 0FEEh ;# 
   696                           opt subtitle "HI-TECH Software Omniscient Code Generator (Lite mode) build 49521"
   697  0000                     INDF0 equ 0FEFh ;# 
   698                           opt subtitle "HI-TECH Software Omniscient Code Generator (Lite mode) build 49521"
   699  0000                     INTCON3 equ 0FF0h ;# 
   700                           opt subtitle "HI-TECH Software Omniscient Code Generator (Lite mode) build 49521"
   701  0000                     INTCON2 equ 0FF1h ;# 
   702                           opt subtitle "HI-TECH Software Omniscient Code Generator (Lite mode) build 49521"
   703  0000                     INTCON equ 0FF2h ;# 
   704                           opt subtitle "HI-TECH Software Omniscient Code Generator (Lite mode) build 49521"
   705  0000                     PROD equ 0FF3h ;# 
   706                           opt subtitle "HI-TECH Software Omniscient Code Generator (Lite mode) build 49521"
   707  0000                     PRODL equ 0FF3h ;# 
   708                           opt subtitle "HI-TECH Software Omniscient Code Generator (Lite mode) build 49521"
   709  0000                     PRODH equ 0FF4h ;# 
   710                           opt subtitle "HI-TECH Software Omniscient Code Generator (Lite mode) build 49521"
   711  0000                     TABLAT equ 0FF5h ;# 
   712                           opt subtitle "HI-TECH Software Omniscient Code Generator (Lite mode) build 49521"
   713  0000                     TBLPTR equ 0FF6h ;# 
   714                           opt subtitle "HI-TECH Software Omniscient Code Generator (Lite mode) build 49521"
   715  0000                     TBLPTRL equ 0FF6h ;# 
   716                           opt subtitle "HI-TECH Software Omniscient Code Generator (Lite mode) build 49521"
   717  0000                     TBLPTRH equ 0FF7h ;# 
   718                           opt subtitle "HI-TECH Software Omniscient Code Generator (Lite mode) build 49521"
   719  0000                     TBLPTRU equ 0FF8h ;# 
   720                           opt subtitle "HI-TECH Software Omniscient Code Generator (Lite mode) build 49521"
   721  0000                     PCLAT equ 0FF9h ;# 
   722                           opt subtitle "HI-TECH Software Omniscient Code Generator (Lite mode) build 49521"
   723  0000                     PC equ 0FF9h ;# 
   724                           opt subtitle "HI-TECH Software Omniscient Code Generator (Lite mode) build 49521"
   725  0000                     PCL equ 0FF9h ;# 
   726                           opt subtitle "HI-TECH Software Omniscient Code Generator (Lite mode) build 49521"
   727  0000                     PCLATH equ 0FFAh ;# 
   728                           opt subtitle "HI-TECH Software Omniscient Code Generator (Lite mode) build 49521"
   729  0000                     PCLATU equ 0FFBh ;# 
   730                           opt subtitle "HI-TECH Software Omniscient Code Generator (Lite mode) build 49521"
   731  0000                     STKPTR equ 0FFCh ;# 
   732                           opt subtitle "HI-TECH Software Omniscient Code Generator (Lite mode) build 49521"
   733  0000                     TOS equ 0FFDh ;# 
   734                           opt subtitle "HI-TECH Software Omniscient Code Generator (Lite mode) build 49521"
   735  0000                     TOSL equ 0FFDh ;# 
   736                           opt subtitle "HI-TECH Software Omniscient Code Generator (Lite mode) build 49521"
   737  0000                     TOSH equ 0FFEh ;# 
   738                           opt subtitle "HI-TECH Software Omniscient Code Generator (Lite mode) build 49521"
   739  0000                     TOSU equ 0FFFh ;# 
   740                           opt subtitle "HI-TECH Software Omniscient Code Generator (Lite mode) build 49521"
   741  0000                     UFRM equ 0F66h ;# 
   742                           opt subtitle "HI-TECH Software Omniscient Code Generator (Lite mode) build 49521"
   743  0000                     UFRML equ 0F66h ;# 
   744                           opt subtitle "HI-TECH Software Omniscient Code Generator (Lite mode) build 49521"
   745  0000                     UFRMH equ 0F67h ;# 
   746                           opt subtitle "HI-TECH Software Omniscient Code Generator (Lite mode) build 49521"
   747  0000                     UIR equ 0F68h ;# 
   748                           opt subtitle "HI-TECH Software Omniscient Code Generator (Lite mode) build 49521"
   749  0000                     UIE equ 0F69h ;# 
   750                           opt subtitle "HI-TECH Software Omniscient Code Generator (Lite mode) build 49521"
   751  0000                     UEIR equ 0F6Ah ;# 
   752                           opt subtitle "HI-TECH Software Omniscient Code Generator (Lite mode) build 49521"
   753  0000                     UEIE equ 0F6Bh ;# 
   754                           opt subtitle "HI-TECH Software Omniscient Code Generator (Lite mode) build 49521"
   755  0000                     USTAT equ 0F6Ch ;# 
   756                           opt subtitle "HI-TECH Software Omniscient Code Generator (Lite mode) build 49521"
   757  0000                     UCON equ 0F6Dh ;# 
   758                           opt subtitle "HI-TECH Software Omniscient Code Generator (Lite mode) build 49521"
   759  0000                     UADDR equ 0F6Eh ;# 
   760                           opt subtitle "HI-TECH Software Omniscient Code Generator (Lite mode) build 49521"
   761  0000                     UCFG equ 0F6Fh ;# 
   762                           opt subtitle "HI-TECH Software Omniscient Code Generator (Lite mode) build 49521"
   763  0000                     UEP0 equ 0F70h ;# 
   764                           opt subtitle "HI-TECH Software Omniscient Code Generator (Lite mode) build 49521"
   765  0000                     UEP1 equ 0F71h ;# 
   766                           opt subtitle "HI-TECH Software Omniscient Code Generator (Lite mode) build 49521"
   767  0000                     UEP2 equ 0F72h ;# 
   768                           opt subtitle "HI-TECH Software Omniscient Code Generator (Lite mode) build 49521"
   769  0000                     UEP3 equ 0F73h ;# 
   770                           opt subtitle "HI-TECH Software Omniscient Code Generator (Lite mode) build 49521"
   771  0000                     UEP4 equ 0F74h ;# 
   772                           opt subtitle "HI-TECH Software Omniscient Code Generator (Lite mode) build 49521"
   773  0000                     UEP5 equ 0F75h ;# 
   774                           opt subtitle "HI-TECH Software Omniscient Code Generator (Lite mode) build 49521"
   775  0000                     UEP6 equ 0F76h ;# 
   776                           opt subtitle "HI-TECH Software Omniscient Code Generator (Lite mode) build 49521"
   777  0000                     UEP7 equ 0F77h ;# 
   778                           opt subtitle "HI-TECH Software Omniscient Code Generator (Lite mode) build 49521"
   779  0000                     UEP8 equ 0F78h ;# 
   780                           opt subtitle "HI-TECH Software Omniscient Code Generator (Lite mode) build 49521"
   781  0000                     UEP9 equ 0F79h ;# 
   782                           opt subtitle "HI-TECH Software Omniscient Code Generator (Lite mode) build 49521"
   783  0000                     UEP10 equ 0F7Ah ;# 
   784                           opt subtitle "HI-TECH Software Omniscient Code Generator (Lite mode) build 49521"
   785  0000                     UEP11 equ 0F7Bh ;# 
   786                           opt subtitle "HI-TECH Software Omniscient Code Generator (Lite mode) build 49521"
   787  0000                     UEP12 equ 0F7Ch ;# 
   788                           opt subtitle "HI-TECH Software Omniscient Code Generator (Lite mode) build 49521"
   789  0000                     UEP13 equ 0F7Dh ;# 
   790                           opt subtitle "HI-TECH Software Omniscient Code Generator (Lite mode) build 49521"
   791  0000                     UEP14 equ 0F7Eh ;# 
   792                           opt subtitle "HI-TECH Software Omniscient Code Generator (Lite mode) build 49521"
   793  0000                     UEP15 equ 0F7Fh ;# 
   794                           opt subtitle "HI-TECH Software Omniscient Code Generator (Lite mode) build 49521"
   795  0000                     PORTA equ 0F80h ;# 
   796                           opt subtitle "HI-TECH Software Omniscient Code Generator (Lite mode) build 49521"
   797  0000                     PORTB equ 0F81h ;# 
   798                           opt subtitle "HI-TECH Software Omniscient Code Generator (Lite mode) build 49521"
   799  0000                     PORTC equ 0F82h ;# 
   800                           opt subtitle "HI-TECH Software Omniscient Code Generator (Lite mode) build 49521"
   801  0000                     PORTE equ 0F84h ;# 
   802                           opt subtitle "HI-TECH Software Omniscient Code Generator (Lite mode) build 49521"
   803  0000                     LATA equ 0F89h ;# 
   804                           opt subtitle "HI-TECH Software Omniscient Code Generator (Lite mode) build 49521"
   805  0000                     LATB equ 0F8Ah ;# 
   806                           opt subtitle "HI-TECH Software Omniscient Code Generator (Lite mode) build 49521"
   807  0000                     LATC equ 0F8Bh ;# 
   808                           opt subtitle "HI-TECH Software Omniscient Code Generator (Lite mode) build 49521"
   809  0000                     TRISA equ 0F92h ;# 
   810                           opt subtitle "HI-TECH Software Omniscient Code Generator (Lite mode) build 49521"
   811  0000                     DDRA equ 0F92h ;# 
   812                           opt subtitle "HI-TECH Software Omniscient Code Generator (Lite mode) build 49521"
   813  0000                     TRISB equ 0F93h ;# 
   814                           opt subtitle "HI-TECH Software Omniscient Code Generator (Lite mode) build 49521"
   815  0000                     DDRB equ 0F93h ;# 
   816                           opt subtitle "HI-TECH Software Omniscient Code Generator (Lite mode) build 49521"
   817  0000                     TRISC equ 0F94h ;# 
   818                           opt subtitle "HI-TECH Software Omniscient Code Generator (Lite mode) build 49521"
   819  0000                     DDRC equ 0F94h ;# 
   820                           opt subtitle "HI-TECH Software Omniscient Code Generator (Lite mode) build 49521"
   821  0000                     OSCTUNE equ 0F9Bh ;# 
   822                           opt subtitle "HI-TECH Software Omniscient Code Generator (Lite mode) build 49521"
   823  0000                     PIE1 equ 0F9Dh ;# 
   824                           opt subtitle "HI-TECH Software Omniscient Code Generator (Lite mode) build 49521"
   825  0000                     PIR1 equ 0F9Eh ;# 
   826                           opt subtitle "HI-TECH Software Omniscient Code Generator (Lite mode) build 49521"
   827  0000                     IPR1 equ 0F9Fh ;# 
   828                           opt subtitle "HI-TECH Software Omniscient Code Generator (Lite mode) build 49521"
   829  0000                     PIE2 equ 0FA0h ;# 
   830                           opt subtitle "HI-TECH Software Omniscient Code Generator (Lite mode) build 49521"
   831  0000                     PIR2 equ 0FA1h ;# 
   832                           opt subtitle "HI-TECH Software Omniscient Code Generator (Lite mode) build 49521"
   833  0000                     IPR2 equ 0FA2h ;# 
   834                           opt subtitle "HI-TECH Software Omniscient Code Generator (Lite mode) build 49521"
   835  0000                     EECON1 equ 0FA6h ;# 
   836                           opt subtitle "HI-TECH Software Omniscient Code Generator (Lite mode) build 49521"
   837  0000                     EECON2 equ 0FA7h ;# 
   838                           opt subtitle "HI-TECH Software Omniscient Code Generator (Lite mode) build 49521"
   839  0000                     EEDATA equ 0FA8h ;# 
   840                           opt subtitle "HI-TECH Software Omniscient Code Generator (Lite mode) build 49521"
   841  0000                     EEADR equ 0FA9h ;# 
   842                           opt subtitle "HI-TECH Software Omniscient Code Generator (Lite mode) build 49521"
   843  0000                     RCSTA equ 0FABh ;# 
   844                           opt subtitle "HI-TECH Software Omniscient Code Generator (Lite mode) build 49521"
   845  0000                     RCSTA1 equ 0FABh ;# 
   846                           opt subtitle "HI-TECH Software Omniscient Code Generator (Lite mode) build 49521"
   847  0000                     TXSTA equ 0FACh ;# 
   848                           opt subtitle "HI-TECH Software Omniscient Code Generator (Lite mode) build 49521"
   849  0000                     TXSTA1 equ 0FACh ;# 
   850                           opt subtitle "HI-TECH Software Omniscient Code Generator (Lite mode) build 49521"
   851  0000                     TXREG equ 0FADh ;# 
   852                           opt subtitle "HI-TECH Software Omniscient Code Generator (Lite mode) build 49521"
   853  0000                     TXREG1 equ 0FADh ;# 
   854                           opt subtitle "HI-TECH Software Omniscient Code Generator (Lite mode) build 49521"
   855  0000                     RCREG equ 0FAEh ;# 
   856                           opt subtitle "HI-TECH Software Omniscient Code Generator (Lite mode) build 49521"
   857  0000                     RCREG1 equ 0FAEh ;# 
   858                           opt subtitle "HI-TECH Software Omniscient Code Generator (Lite mode) build 49521"
   859  0000                     SPBRG equ 0FAFh ;# 
   860                           opt subtitle "HI-TECH Software Omniscient Code Generator (Lite mode) build 49521"
   861  0000                     SPBRG1 equ 0FAFh ;# 
   862                           opt subtitle "HI-TECH Software Omniscient Code Generator (Lite mode) build 49521"
   863  0000                     SPBRGH equ 0FB0h ;# 
   864                           opt subtitle "HI-TECH Software Omniscient Code Generator (Lite mode) build 49521"
   865  0000                     T3CON equ 0FB1h ;# 
   866                           opt subtitle "HI-TECH Software Omniscient Code Generator (Lite mode) build 49521"
   867  0000                     TMR3 equ 0FB2h ;# 
   868                           opt subtitle "HI-TECH Software Omniscient Code Generator (Lite mode) build 49521"
   869  0000                     TMR3L equ 0FB2h ;# 
   870                           opt subtitle "HI-TECH Software Omniscient Code Generator (Lite mode) build 49521"
   871  0000                     TMR3H equ 0FB3h ;# 
   872                           opt subtitle "HI-TECH Software Omniscient Code Generator (Lite mode) build 49521"
   873  0000                     CMCON equ 0FB4h ;# 
   874                           opt subtitle "HI-TECH Software Omniscient Code Generator (Lite mode) build 49521"
   875  0000                     CVRCON equ 0FB5h ;# 
   876                           opt subtitle "HI-TECH Software Omniscient Code Generator (Lite mode) build 49521"
   877  0000                     ECCP1AS equ 0FB6h ;# 
   878                           opt subtitle "HI-TECH Software Omniscient Code Generator (Lite mode) build 49521"
   879  0000                     CCP1AS equ 0FB6h ;# 
   880                           opt subtitle "HI-TECH Software Omniscient Code Generator (Lite mode) build 49521"
   881  0000                     ECCP1DEL equ 0FB7h ;# 
   882                           opt subtitle "HI-TECH Software Omniscient Code Generator (Lite mode) build 49521"
   883  0000                     CCP1DEL equ 0FB7h ;# 
   884                           opt subtitle "HI-TECH Software Omniscient Code Generator (Lite mode) build 49521"
   885  0000                     BAUDCON equ 0FB8h ;# 
   886                           opt subtitle "HI-TECH Software Omniscient Code Generator (Lite mode) build 49521"
   887  0000                     BAUDCTL equ 0FB8h ;# 
   888                           opt subtitle "HI-TECH Software Omniscient Code Generator (Lite mode) build 49521"
   889  0000                     CCP2CON equ 0FBAh ;# 
   890                           opt subtitle "HI-TECH Software Omniscient Code Generator (Lite mode) build 49521"
   891  0000                     CCPR2 equ 0FBBh ;# 
   892                           opt subtitle "HI-TECH Software Omniscient Code Generator (Lite mode) build 49521"
   893  0000                     CCPR2L equ 0FBBh ;# 
   894                           opt subtitle "HI-TECH Software Omniscient Code Generator (Lite mode) build 49521"
   895  0000                     CCPR2H equ 0FBCh ;# 
   896                           opt subtitle "HI-TECH Software Omniscient Code Generator (Lite mode) build 49521"
   897  0000                     CCP1CON equ 0FBDh ;# 
   898                           opt subtitle "HI-TECH Software Omniscient Code Generator (Lite mode) build 49521"
   899  0000                     CCPR1 equ 0FBEh ;# 
   900                           opt subtitle "HI-TECH Software Omniscient Code Generator (Lite mode) build 49521"
   901  0000                     CCPR1L equ 0FBEh ;# 
   902                           opt subtitle "HI-TECH Software Omniscient Code Generator (Lite mode) build 49521"
   903  0000                     CCPR1H equ 0FBFh ;# 
   904                           opt subtitle "HI-TECH Software Omniscient Code Generator (Lite mode) build 49521"
   905  0000                     ADCON2 equ 0FC0h ;# 
   906                           opt subtitle "HI-TECH Software Omniscient Code Generator (Lite mode) build 49521"
   907  0000                     ADCON1 equ 0FC1h ;# 
   908                           opt subtitle "HI-TECH Software Omniscient Code Generator (Lite mode) build 49521"
   909  0000                     ADCON0 equ 0FC2h ;# 
   910                           opt subtitle "HI-TECH Software Omniscient Code Generator (Lite mode) build 49521"
   911  0000                     ADRES equ 0FC3h ;# 
   912                           opt subtitle "HI-TECH Software Omniscient Code Generator (Lite mode) build 49521"
   913  0000                     ADRESL equ 0FC3h ;# 
   914                           opt subtitle "HI-TECH Software Omniscient Code Generator (Lite mode) build 49521"
   915  0000                     ADRESH equ 0FC4h ;# 
   916                           opt subtitle "HI-TECH Software Omniscient Code Generator (Lite mode) build 49521"
   917  0000                     SSPCON2 equ 0FC5h ;# 
   918                           opt subtitle "HI-TECH Software Omniscient Code Generator (Lite mode) build 49521"
   919  0000                     SSPCON1 equ 0FC6h ;# 
   920                           opt subtitle "HI-TECH Software Omniscient Code Generator (Lite mode) build 49521"
   921  0000                     SSPSTAT equ 0FC7h ;# 
   922                           opt subtitle "HI-TECH Software Omniscient Code Generator (Lite mode) build 49521"
   923  0000                     SSPADD equ 0FC8h ;# 
   924                           opt subtitle "HI-TECH Software Omniscient Code Generator (Lite mode) build 49521"
   925  0000                     SSPBUF equ 0FC9h ;# 
   926                           opt subtitle "HI-TECH Software Omniscient Code Generator (Lite mode) build 49521"
   927  0000                     T2CON equ 0FCAh ;# 
   928                           opt subtitle "HI-TECH Software Omniscient Code Generator (Lite mode) build 49521"
   929  0000                     PR2 equ 0FCBh ;# 
   930                           opt subtitle "HI-TECH Software Omniscient Code Generator (Lite mode) build 49521"
   931  0000                     MEMCON equ 0FCBh ;# 
   932                           opt subtitle "HI-TECH Software Omniscient Code Generator (Lite mode) build 49521"
   933  0000                     TMR2 equ 0FCCh ;# 
   934                           opt subtitle "HI-TECH Software Omniscient Code Generator (Lite mode) build 49521"
   935  0000                     T1CON equ 0FCDh ;# 
   936                           opt subtitle "HI-TECH Software Omniscient Code Generator (Lite mode) build 49521"
   937  0000                     TMR1 equ 0FCEh ;# 
   938                           opt subtitle "HI-TECH Software Omniscient Code Generator (Lite mode) build 49521"
   939  0000                     TMR1L equ 0FCEh ;# 
   940                           opt subtitle "HI-TECH Software Omniscient Code Generator (Lite mode) build 49521"
   941  0000                     TMR1H equ 0FCFh ;# 
   942                           opt subtitle "HI-TECH Software Omniscient Code Generator (Lite mode) build 49521"
   943  0000                     RCON equ 0FD0h ;# 
   944                           opt subtitle "HI-TECH Software Omniscient Code Generator (Lite mode) build 49521"
   945  0000                     WDTCON equ 0FD1h ;# 
   946                           opt subtitle "HI-TECH Software Omniscient Code Generator (Lite mode) build 49521"
   947  0000                     HLVDCON equ 0FD2h ;# 
   948                           opt subtitle "HI-TECH Software Omniscient Code Generator (Lite mode) build 49521"
   949  0000                     LVDCON equ 0FD2h ;# 
   950                           opt subtitle "HI-TECH Software Omniscient Code Generator (Lite mode) build 49521"
   951  0000                     OSCCON equ 0FD3h ;# 
   952                           opt subtitle "HI-TECH Software Omniscient Code Generator (Lite mode) build 49521"
   953  0000                     T0CON equ 0FD5h ;# 
   954                           opt subtitle "HI-TECH Software Omniscient Code Generator (Lite mode) build 49521"
   955  0000                     TMR0 equ 0FD6h ;# 
   956                           opt subtitle "HI-TECH Software Omniscient Code Generator (Lite mode) build 49521"
   957  0000                     TMR0L equ 0FD6h ;# 
   958                           opt subtitle "HI-TECH Software Omniscient Code Generator (Lite mode) build 49521"
   959  0000                     TMR0H equ 0FD7h ;# 
   960                           opt subtitle "HI-TECH Software Omniscient Code Generator (Lite mode) build 49521"
   961  0000                     STATUS equ 0FD8h ;# 
   962                           opt subtitle "HI-TECH Software Omniscient Code Generator (Lite mode) build 49521"
   963  0000                     FSR2 equ 0FD9h ;# 
   964                           opt subtitle "HI-TECH Software Omniscient Code Generator (Lite mode) build 49521"
   965  0000                     FSR2L equ 0FD9h ;# 
   966                           opt subtitle "HI-TECH Software Omniscient Code Generator (Lite mode) build 49521"
   967  0000                     FSR2H equ 0FDAh ;# 
   968                           opt subtitle "HI-TECH Software Omniscient Code Generator (Lite mode) build 49521"
   969  0000                     PLUSW2 equ 0FDBh ;# 
   970                           opt subtitle "HI-TECH Software Omniscient Code Generator (Lite mode) build 49521"
   971  0000                     PREINC2 equ 0FDCh ;# 
   972                           opt subtitle "HI-TECH Software Omniscient Code Generator (Lite mode) build 49521"
   973  0000                     POSTDEC2 equ 0FDDh ;# 
   974                           opt subtitle "HI-TECH Software Omniscient Code Generator (Lite mode) build 49521"
   975  0000                     POSTINC2 equ 0FDEh ;# 
   976                           opt subtitle "HI-TECH Software Omniscient Code Generator (Lite mode) build 49521"
   977  0000                     INDF2 equ 0FDFh ;# 
   978                           opt subtitle "HI-TECH Software Omniscient Code Generator (Lite mode) build 49521"
   979  0000                     BSR equ 0FE0h ;# 
   980                           opt subtitle "HI-TECH Software Omniscient Code Generator (Lite mode) build 49521"
   981  0000                     FSR1 equ 0FE1h ;# 
   982                           opt subtitle "HI-TECH Software Omniscient Code Generator (Lite mode) build 49521"
   983  0000                     FSR1L equ 0FE1h ;# 
   984                           opt subtitle "HI-TECH Software Omniscient Code Generator (Lite mode) build 49521"
   985  0000                     FSR1H equ 0FE2h ;# 
   986                           opt subtitle "HI-TECH Software Omniscient Code Generator (Lite mode) build 49521"
   987  0000                     PLUSW1 equ 0FE3h ;# 
   988                           opt subtitle "HI-TECH Software Omniscient Code Generator (Lite mode) build 49521"
   989  0000                     PREINC1 equ 0FE4h ;# 
   990                           opt subtitle "HI-TECH Software Omniscient Code Generator (Lite mode) build 49521"
   991  0000                     POSTDEC1 equ 0FE5h ;# 
   992                           opt subtitle "HI-TECH Software Omniscient Code Generator (Lite mode) build 49521"
   993  0000                     POSTINC1 equ 0FE6h ;# 
   994                           opt subtitle "HI-TECH Software Omniscient Code Generator (Lite mode) build 49521"
   995  0000                     INDF1 equ 0FE7h ;# 
   996                           opt subtitle "HI-TECH Software Omniscient Code Generator (Lite mode) build 49521"
   997  0000                     WREG equ 0FE8h ;# 
   998                           opt subtitle "HI-TECH Software Omniscient Code Generator (Lite mode) build 49521"
   999  0000                     FSR0 equ 0FE9h ;# 
  1000                           opt subtitle "HI-TECH Software Omniscient Code Generator (Lite mode) build 49521"
  1001  0000                     FSR0L equ 0FE9h ;# 
  1002                           opt subtitle "HI-TECH Software Omniscient Code Generator (Lite mode) build 49521"
  1003  0000                     FSR0H equ 0FEAh ;# 
  1004                           opt subtitle "HI-TECH Software Omniscient Code Generator (Lite mode) build 49521"
  1005  0000                     PLUSW0 equ 0FEBh ;# 
  1006                           opt subtitle "HI-TECH Software Omniscient Code Generator (Lite mode) build 49521"
  1007  0000                     PREINC0 equ 0FECh ;# 
  1008                           opt subtitle "HI-TECH Software Omniscient Code Generator (Lite mode) build 49521"
  1009  0000                     POSTDEC0 equ 0FEDh ;# 
  1010                           opt subtitle "HI-TECH Software Omniscient Code Generator (Lite mode) build 49521"
  1011  0000                     POSTINC0 equ 0FEEh ;# 
  1012                           opt subtitle "HI-TECH Software Omniscient Code Generator (Lite mode) build 49521"
  1013  0000                     INDF0 equ 0FEFh ;# 
  1014                           opt subtitle "HI-TECH Software Omniscient Code Generator (Lite mode) build 49521"
  1015  0000                     INTCON3 equ 0FF0h ;# 
  1016                           opt subtitle "HI-TECH Software Omniscient Code Generator (Lite mode) build 49521"
  1017  0000                     INTCON2 equ 0FF1h ;# 
  1018                           opt subtitle "HI-TECH Software Omniscient Code Generator (Lite mode) build 49521"
  1019  0000                     INTCON equ 0FF2h ;# 
  1020                           opt subtitle "HI-TECH Software Omniscient Code Generator (Lite mode) build 49521"
  1021  0000                     PROD equ 0FF3h ;# 
  1022                           opt subtitle "HI-TECH Software Omniscient Code Generator (Lite mode) build 49521"
  1023  0000                     PRODL equ 0FF3h ;# 
  1024                           opt subtitle "HI-TECH Software Omniscient Code Generator (Lite mode) build 49521"
  1025  0000                     PRODH equ 0FF4h ;# 
  1026                           opt subtitle "HI-TECH Software Omniscient Code Generator (Lite mode) build 49521"
  1027  0000                     TABLAT equ 0FF5h ;# 
  1028                           opt subtitle "HI-TECH Software Omniscient Code Generator (Lite mode) build 49521"
  1029  0000                     TBLPTR equ 0FF6h ;# 
  1030                           opt subtitle "HI-TECH Software Omniscient Code Generator (Lite mode) build 49521"
  1031  0000                     TBLPTRL equ 0FF6h ;# 
  1032                           opt subtitle "HI-TECH Software Omniscient Code Generator (Lite mode) build 49521"
  1033  0000                     TBLPTRH equ 0FF7h ;# 
  1034                           opt subtitle "HI-TECH Software Omniscient Code Generator (Lite mode) build 49521"
  1035  0000                     TBLPTRU equ 0FF8h ;# 
  1036                           opt subtitle "HI-TECH Software Omniscient Code Generator (Lite mode) build 49521"
  1037  0000                     PCLAT equ 0FF9h ;# 
  1038                           opt subtitle "HI-TECH Software Omniscient Code Generator (Lite mode) build 49521"
  1039  0000                     PC equ 0FF9h ;# 
  1040                           opt subtitle "HI-TECH Software Omniscient Code Generator (Lite mode) build 49521"
  1041  0000                     PCL equ 0FF9h ;# 
  1042                           opt subtitle "HI-TECH Software Omniscient Code Generator (Lite mode) build 49521"
  1043  0000                     PCLATH equ 0FFAh ;# 
  1044                           opt subtitle "HI-TECH Software Omniscient Code Generator (Lite mode) build 49521"
  1045  0000                     PCLATU equ 0FFBh ;# 
  1046                           opt subtitle "HI-TECH Software Omniscient Code Generator (Lite mode) build 49521"
  1047  0000                     STKPTR equ 0FFCh ;# 
  1048                           opt subtitle "HI-TECH Software Omniscient Code Generator (Lite mode) build 49521"
  1049  0000                     TOS equ 0FFDh ;# 
  1050                           opt subtitle "HI-TECH Software Omniscient Code Generator (Lite mode) build 49521"
  1051  0000                     TOSL equ 0FFDh ;# 
  1052                           opt subtitle "HI-TECH Software Omniscient Code Generator (Lite mode) build 49521"
  1053  0000                     TOSH equ 0FFEh ;# 
  1054                           opt subtitle "HI-TECH Software Omniscient Code Generator (Lite mode) build 49521"
  1055  0000                     TOSU equ 0FFFh ;# 
  1056                           opt subtitle "HI-TECH Software Omniscient Code Generator (Lite mode) build 49521"
  1057                           
  1058                           opt pagewidth 120
  1059                           
  1060                           	opt lm
  1061                           
  1062                           	processor	18F2550
  1063                           porta	equ	0F80h
  1064                           portb	equ	0F81h
  1065                           portc	equ	0F82h
  1066                           portd	equ	0F83h
  1067                           porte	equ	0F84h
  1068                           lata	equ	0F89h
  1069                           latb	equ	0F8Ah
  1070                           latc	equ	0F8Bh
  1071                           latd	equ	0F8Ch
  1072                           late	equ	0F8Dh
  1073                           trisa	equ	0F92h
  1074                           trisb	equ	0F93h
  1075                           trisc	equ	0F94h
  1076                           trisd	equ	0F95h
  1077                           trise	equ	0F96h
  1078                           pie1	equ	0F9Dh
  1079                           pir1	equ	0F9Eh
  1080                           ipr1	equ	0F9Fh
  1081                           pie2	equ	0FA0h
  1082                           pir2	equ	0FA1h
  1083                           ipr2	equ	0FA2h
  1084                           t3con	equ	0FB1h
  1085                           tmr3l	equ	0FB2h
  1086                           tmr3h	equ	0FB3h
  1087                           ccp1con	equ	0FBDh
  1088                           ccpr1l	equ	0FBEh
  1089                           ccpr1h	equ	0FBFh
  1090                           adcon1	equ	0FC1h
  1091                           adcon0	equ	0FC2h
  1092  0000                     _INTCON2bits	set	0xFF1
  1093                           opt subtitle "HI-TECH Software Omniscient Code Generator (Lite mode) build 49521"
  1094  0000                     _INTCONbits	set	0xFF2
  1095                           opt subtitle "HI-TECH Software Omniscient Code Generator (Lite mode) build 49521"
  1096  0000                     _T0CON	set	0xFD5
  1097                           opt subtitle "HI-TECH Software Omniscient Code Generator (Lite mode) build 49521"
  1098  0000                     _TMR0H	set	0xFD7
  1099                           opt subtitle "HI-TECH Software Omniscient Code Generator (Lite mode) build 49521"
  1100  0000                     _TMR0L	set	0xFD6
  1101                           opt subtitle "HI-TECH Software Omniscient Code Generator (Lite mode) build 49521"
  1102                           
  1103  0000'                    __ptext0:
  1104                           opt subtitle "HI-TECH Software Omniscient Code Generator (Lite mode) build 49521"
  1105                           
  1106                           opt pagewidth 120
  1107                           
  1108                           	opt lm
  1109  0000'                    __pcinit:
  1110                           opt subtitle "HI-TECH Software Omniscient Code Generator (Lite mode) build 49521"
  1111  0000'                    start_initialization:
  1112                           opt subtitle "HI-TECH Software Omniscient Code Generator (Lite mode) build 49521"
  1113                           
  1114  0000'                    __initialization:
  1115                           opt subtitle "HI-TECH Software Omniscient Code Generator (Lite mode) build 49521"
  1116                           
  1117  0000'                    __pbssBANK0:
  1118  0000'                    _tickbuffer:
  1119  0000'                           ds      6
  1120  0006'                    _tickcnt:
  1121  0006'                           ds      4
  1122                           opt subtitle "HI-TECH Software Omniscient Code Generator (Lite mode) build 49521"
  1123                           
  1124                           opt pagewidth 120
  1125  0000' EE00' F000'        lfsr	0,__pbssBANK0
  1126  0004' 0E0A               movlw	10
  1127  0006'                    clear_0:
  1128  0006' 6AEE               clrf	postinc0,c
  1129  0008' 06E8               decf	wreg
  1130  000A' E1FD               bnz	clear_0
  1131                           opt subtitle "HI-TECH Software Omniscient Code Generator (Lite mode) build 49521"
  1132                           
  1133                           opt pagewidth 120
  1134                           
  1135                           	opt lm
  1136  000C'                    end_of_initialization:
  1137  000C'                    __end_of__initialization:movlb 0
  1138  000E' EF00' F000'        goto _main	;jump to C main() function
  1139                           opt subtitle "HI-TECH Software Omniscient Code Generator (Lite mode) build 49521"
  1140                           
  1141  0000'                    __pcstackBANK0:
  1142                           opt subtitle "HI-TECH Software Omniscient Code Generator (Lite mode) build 49521"
  1143  0000'                    main@input2:	; 3 bytes @ 0x0
  1144  0000'                    	ds   3
  1145                           opt subtitle "HI-TECH Software Omniscient Code Generator (Lite mode) build 49521"
  1146  0003'                    main@pid2:	; 2 bytes @ 0x3
  1147  0003'                    	ds   2
  1148                           opt subtitle "HI-TECH Software Omniscient Code Generator (Lite mode) build 49521"
  1149  0005'                    main@lastrun:	; 4 bytes @ 0x5
  1150  0005'                    	ds   4
  1151                           opt subtitle "HI-TECH Software Omniscient Code Generator (Lite mode) build 49521"
  1152  0009'                    main@tcpl1:	; 4 bytes @ 0x9
  1153  0009'                    	ds   4
  1154                           opt subtitle "HI-TECH Software Omniscient Code Generator (Lite mode) build 49521"
  1155  000D'                    main@tcpl2:	; 4 bytes @ 0xD
  1156  000D'                    	ds   4
  1157                           opt subtitle "HI-TECH Software Omniscient Code Generator (Lite mode) build 49521"
  1158  0011'                    main@setpoint:	; 3 bytes @ 0x11
  1159  0011'                    	ds   3
  1160                           opt subtitle "HI-TECH Software Omniscient Code Generator (Lite mode) build 49521"
  1161  0014'                    main@input1:	; 3 bytes @ 0x14
  1162  0014'                    	ds   3
  1163                           opt subtitle "HI-TECH Software Omniscient Code Generator (Lite mode) build 49521"
  1164  0017'                    main@output:	; 3 bytes @ 0x17
  1165  0017'                    	ds   3
  1166                           opt subtitle "HI-TECH Software Omniscient Code Generator (Lite mode) build 49521"
  1167  001A'                    main@spi:	; 1 bytes @ 0x1A
  1168  001A'                    	ds   1
  1169                           opt subtitle "HI-TECH Software Omniscient Code Generator (Lite mode) build 49521"
  1170  001B'                    main@pid1:	; 2 bytes @ 0x1B
  1171  001B'                    	ds   2
  1172                           opt subtitle "HI-TECH Software Omniscient Code Generator (Lite mode) build 49521"
  1173  001D'                    main@pidcontrol1:	; 37 bytes @ 0x1D
  1174  001D'                    	ds   37
  1175                           opt subtitle "HI-TECH Software Omniscient Code Generator (Lite mode) build 49521"
  1176                           
  1177  0000'                    __pcstackCOMRAM:
  1178  0000'                    ?_tick_read_internal:	; 0 bytes @ 0x0
  1179  0000'                    ??_tick_read_internal:	; 0 bytes @ 0x0
  1180                           opt subtitle "HI-TECH Software Omniscient Code Generator (Lite mode) build 49521"
  1181  0000'                    ?___ftge:	; 1 bit 
  1182                           opt subtitle "HI-TECH Software Omniscient Code Generator (Lite mode) build 49521"
  1183  0000'                    ?_tc_read:	; 2 bytes @ 0x0
  1184                           opt subtitle "HI-TECH Software Omniscient Code Generator (Lite mode) build 49521"
  1185  0000'                    ?___ftpack:	; 3 bytes @ 0x0
  1186                           opt subtitle "HI-TECH Software Omniscient Code Generator (Lite mode) build 49521"
  1187  0000'                    ?_tc_init:	; 4 bytes @ 0x0
  1188                           opt subtitle "HI-TECH Software Omniscient Code Generator (Lite mode) build 49521"
  1189  0000'                    ?_tick_get:	; 4 bytes @ 0x0
  1190  0000'                    _tc_init$0:	; 1 bytes @ 0x0
  1191                           opt subtitle "HI-TECH Software Omniscient Code Generator (Lite mode) build 49521"
  1192  0000'                    ___ftpack@arg:	; 3 bytes @ 0x0
  1193                           opt subtitle "HI-TECH Software Omniscient Code Generator (Lite mode) build 49521"
  1194  0000'                    ___ftge@ff1:	; 3 bytes @ 0x0
  1195  0000'                    _tc_read$0:	; 4 bytes @ 0x0
  1196  0000'                    	ds   1
  1197  0001'                    _tc_init$1:	; 1 bytes @ 0x1
  1198  0001'                    	ds   1
  1199  0002'                    ??_tc_init:	; 0 bytes @ 0x2
  1200  0002'                    	ds   1
  1201                           opt subtitle "HI-TECH Software Omniscient Code Generator (Lite mode) build 49521"
  1202  0003'                    ___ftpack@exp:	; 1 bytes @ 0x3
  1203                           opt subtitle "HI-TECH Software Omniscient Code Generator (Lite mode) build 49521"
  1204  0003'                    ___ftge@ff2:	; 3 bytes @ 0x3
  1205  0003'                    	ds   1
  1206  0004'                    ??_tick_get:	; 0 bytes @ 0x4
  1207  0004'                    ??_tc_read:	; 0 bytes @ 0x4
  1208                           opt subtitle "HI-TECH Software Omniscient Code Generator (Lite mode) build 49521"
  1209  0004'                    ___ftpack@sign:	; 1 bytes @ 0x4
  1210  0004'                    	ds   1
  1211  0005'                    ??___ftpack:	; 0 bytes @ 0x5
  1212  0005'                    	ds   1
  1213  0006'                    ??___ftge:	; 0 bytes @ 0x6
  1214  0006'                    	ds   2
  1215                           opt subtitle "HI-TECH Software Omniscient Code Generator (Lite mode) build 49521"
  1216  0008'                    ?___awtoft:	; 3 bytes @ 0x8
  1217                           opt subtitle "HI-TECH Software Omniscient Code Generator (Lite mode) build 49521"
  1218  0008'                    ?___ftneg:	; 3 bytes @ 0x8
  1219                           opt subtitle "HI-TECH Software Omniscient Code Generator (Lite mode) build 49521"
  1220  0008'                    ?___lltoft:	; 3 bytes @ 0x8
  1221                           opt subtitle "HI-TECH Software Omniscient Code Generator (Lite mode) build 49521"
  1222  0008'                    ___awtoft@c:	; 2 bytes @ 0x8
  1223                           opt subtitle "HI-TECH Software Omniscient Code Generator (Lite mode) build 49521"
  1224  0008'                    ___ftneg@f1:	; 3 bytes @ 0x8
  1225                           opt subtitle "HI-TECH Software Omniscient Code Generator (Lite mode) build 49521"
  1226  0008'                    ___lltoft@c:	; 4 bytes @ 0x8
  1227  0008'                    	ds   1
  1228                           opt subtitle "HI-TECH Software Omniscient Code Generator (Lite mode) build 49521"
  1229  0009'                    ?_pid_limits:	; 0 bytes @ 0x9
  1230                           opt subtitle "HI-TECH Software Omniscient Code Generator (Lite mode) build 49521"
  1231  0009'                    ?_pid_auto:	; 0 bytes @ 0x9
  1232                           opt subtitle "HI-TECH Software Omniscient Code Generator (Lite mode) build 49521"
  1233  0009'                    pid_limits@pid:	; 2 bytes @ 0x9
  1234                           opt subtitle "HI-TECH Software Omniscient Code Generator (Lite mode) build 49521"
  1235  0009'                    pid_auto@pid:	; 2 bytes @ 0x9
  1236  0009'                    	ds   2
  1237  000B'                    ??_pid_auto:	; 0 bytes @ 0xB
  1238                           opt subtitle "HI-TECH Software Omniscient Code Generator (Lite mode) build 49521"
  1239  000B'                    ?_pid_direction:	; 0 bytes @ 0xB
  1240  000B'                    ??___awtoft:	; 0 bytes @ 0xB
  1241  000B'                    ??___ftneg:	; 0 bytes @ 0xB
  1242                           opt subtitle "HI-TECH Software Omniscient Code Generator (Lite mode) build 49521"
  1243  000B'                    ?___ftmul:	; 3 bytes @ 0xB
  1244                           opt subtitle "HI-TECH Software Omniscient Code Generator (Lite mode) build 49521"
  1245  000B'                    pid_direction@pid:	; 2 bytes @ 0xB
  1246                           opt subtitle "HI-TECH Software Omniscient Code Generator (Lite mode) build 49521"
  1247  000B'                    pid_limits@min:	; 3 bytes @ 0xB
  1248                           opt subtitle "HI-TECH Software Omniscient Code Generator (Lite mode) build 49521"
  1249  000B'                    ___ftmul@f1:	; 3 bytes @ 0xB
  1250  000B'                    	ds   1
  1251  000C'                    ??___lltoft:	; 0 bytes @ 0xC
  1252                           opt subtitle "HI-TECH Software Omniscient Code Generator (Lite mode) build 49521"
  1253  000C'                    ___awtoft@sign:	; 1 bytes @ 0xC
  1254  000C'                    	ds   1
  1255                           opt subtitle "HI-TECH Software Omniscient Code Generator (Lite mode) build 49521"
  1256  000D'                    pid_direction@direction:	; 1 bytes @ 0xD
  1257  000D'                    	ds   1
  1258  000E'                    ??_pid_direction:	; 0 bytes @ 0xE
  1259                           opt subtitle "HI-TECH Software Omniscient Code Generator (Lite mode) build 49521"
  1260  000E'                    pid_limits@max:	; 3 bytes @ 0xE
  1261                           opt subtitle "HI-TECH Software Omniscient Code Generator (Lite mode) build 49521"
  1262  000E'                    ___ftmul@f2:	; 3 bytes @ 0xE
  1263  000E'                    	ds   2
  1264                           opt subtitle "HI-TECH Software Omniscient Code Generator (Lite mode) build 49521"
  1265  0010'                    ___lltoft@exp:	; 1 bytes @ 0x10
  1266  0010'                    	ds   1
  1267  0011'                    ??_pid_limits:	; 0 bytes @ 0x11
  1268  0011'                    ??___ftmul:	; 0 bytes @ 0x11
  1269                           opt subtitle "HI-TECH Software Omniscient Code Generator (Lite mode) build 49521"
  1270  0011'                    ?___ftdiv:	; 3 bytes @ 0x11
  1271                           opt subtitle "HI-TECH Software Omniscient Code Generator (Lite mode) build 49521"
  1272  0011'                    ___ftdiv@f1:	; 3 bytes @ 0x11
  1273  0011'                    	ds   3
  1274                           opt subtitle "HI-TECH Software Omniscient Code Generator (Lite mode) build 49521"
  1275  0014'                    ___ftdiv@f2:	; 3 bytes @ 0x14
  1276  0014'                    	ds   2
  1277                           opt subtitle "HI-TECH Software Omniscient Code Generator (Lite mode) build 49521"
  1278  0016'                    ___ftmul@exp:	; 1 bytes @ 0x16
  1279  0016'                    	ds   1
  1280  0017'                    ??___ftdiv:	; 0 bytes @ 0x17
  1281                           opt subtitle "HI-TECH Software Omniscient Code Generator (Lite mode) build 49521"
  1282  0017'                    ___ftmul@f3_as_product:	; 3 bytes @ 0x17
  1283  0017'                    	ds   3
  1284                           opt subtitle "HI-TECH Software Omniscient Code Generator (Lite mode) build 49521"
  1285  001A'                    ___ftmul@cntr:	; 1 bytes @ 0x1A
  1286  001A'                    	ds   1
  1287                           opt subtitle "HI-TECH Software Omniscient Code Generator (Lite mode) build 49521"
  1288  001B'                    ___ftmul@sign:	; 1 bytes @ 0x1B
  1289  001B'                    	ds   1
  1290                           opt subtitle "HI-TECH Software Omniscient Code Generator (Lite mode) build 49521"
  1291  001C'                    ?___ftadd:	; 3 bytes @ 0x1C
  1292                           opt subtitle "HI-TECH Software Omniscient Code Generator (Lite mode) build 49521"
  1293  001C'                    ___ftdiv@cntr:	; 1 bytes @ 0x1C
  1294                           opt subtitle "HI-TECH Software Omniscient Code Generator (Lite mode) build 49521"
  1295  001C'                    ___ftadd@f1:	; 3 bytes @ 0x1C
  1296  001C'                    	ds   1
  1297                           opt subtitle "HI-TECH Software Omniscient Code Generator (Lite mode) build 49521"
  1298  001D'                    ___ftdiv@f3:	; 3 bytes @ 0x1D
  1299  001D'                    	ds   2
  1300                           opt subtitle "HI-TECH Software Omniscient Code Generator (Lite mode) build 49521"
  1301  001F'                    ___ftadd@f2:	; 3 bytes @ 0x1F
  1302  001F'                    	ds   1
  1303                           opt subtitle "HI-TECH Software Omniscient Code Generator (Lite mode) build 49521"
  1304  0020'                    ___ftdiv@exp:	; 1 bytes @ 0x20
  1305  0020'                    	ds   1
  1306                           opt subtitle "HI-TECH Software Omniscient Code Generator (Lite mode) build 49521"
  1307  0021'                    ___ftdiv@sign:	; 1 bytes @ 0x21
  1308  0021'                    	ds   1
  1309                           opt subtitle "HI-TECH Software Omniscient Code Generator (Lite mode) build 49521"
  1310  0022'                    ?_pid_tune:	; 0 bytes @ 0x22
  1311  0022'                    ??___ftadd:	; 0 bytes @ 0x22
  1312                           opt subtitle "HI-TECH Software Omniscient Code Generator (Lite mode) build 49521"
  1313  0022'                    pid_tune@pid:	; 2 bytes @ 0x22
  1314  0022'                    	ds   2
  1315                           opt subtitle "HI-TECH Software Omniscient Code Generator (Lite mode) build 49521"
  1316  0024'                    pid_tune@kp:	; 3 bytes @ 0x24
  1317  0024'                    	ds   3
  1318                           opt subtitle "HI-TECH Software Omniscient Code Generator (Lite mode) build 49521"
  1319  0027'                    ___ftadd@sign:	; 1 bytes @ 0x27
  1320                           opt subtitle "HI-TECH Software Omniscient Code Generator (Lite mode) build 49521"
  1321  0027'                    pid_tune@ki:	; 3 bytes @ 0x27
  1322  0027'                    	ds   1
  1323                           opt subtitle "HI-TECH Software Omniscient Code Generator (Lite mode) build 49521"
  1324  0028'                    ___ftadd@exp2:	; 1 bytes @ 0x28
  1325  0028'                    	ds   1
  1326                           opt subtitle "HI-TECH Software Omniscient Code Generator (Lite mode) build 49521"
  1327  0029'                    ___ftadd@exp1:	; 1 bytes @ 0x29
  1328  0029'                    	ds   1
  1329                           opt subtitle "HI-TECH Software Omniscient Code Generator (Lite mode) build 49521"
  1330  002A'                    ?___asftadd:	; 3 bytes @ 0x2A
  1331                           opt subtitle "HI-TECH Software Omniscient Code Generator (Lite mode) build 49521"
  1332  002A'                    ___asftadd@f1p:	; 2 bytes @ 0x2A
  1333                           opt subtitle "HI-TECH Software Omniscient Code Generator (Lite mode) build 49521"
  1334  002A'                    pid_tune@kd:	; 3 bytes @ 0x2A
  1335  002A'                    	ds   2
  1336                           opt subtitle "HI-TECH Software Omniscient Code Generator (Lite mode) build 49521"
  1337  002C'                    ___asftadd@f2:	; 3 bytes @ 0x2C
  1338  002C'                    	ds   1
  1339  002D'                    ??_pid_tune:	; 0 bytes @ 0x2D
  1340                           opt subtitle "HI-TECH Software Omniscient Code Generator (Lite mode) build 49521"
  1341  002D'                    pid_tune@ssec:	; 3 bytes @ 0x2D
  1342  002D'                    	ds   2
  1343  002F'                    ??___asftadd:	; 0 bytes @ 0x2F
  1344                           opt subtitle "HI-TECH Software Omniscient Code Generator (Lite mode) build 49521"
  1345  002F'                    ?_pid_compute:	; 1 bytes @ 0x2F
  1346                           opt subtitle "HI-TECH Software Omniscient Code Generator (Lite mode) build 49521"
  1347  002F'                    pid_compute@pid:	; 2 bytes @ 0x2F
  1348  002F'                    	ds   1
  1349                           opt subtitle "HI-TECH Software Omniscient Code Generator (Lite mode) build 49521"
  1350  0030'                    ?_pid_create:	; 2 bytes @ 0x30
  1351                           opt subtitle "HI-TECH Software Omniscient Code Generator (Lite mode) build 49521"
  1352  0030'                    pid_create@pid:	; 2 bytes @ 0x30
  1353  0030'                    	ds   1
  1354  0031'                    ??_pid_compute:	; 0 bytes @ 0x31
  1355  0031'                    	ds   1
  1356                           opt subtitle "HI-TECH Software Omniscient Code Generator (Lite mode) build 49521"
  1357  0032'                    pid_create@in:	; 2 bytes @ 0x32
  1358  0032'                    	ds   2
  1359                           opt subtitle "HI-TECH Software Omniscient Code Generator (Lite mode) build 49521"
  1360  0034'                    pid_create@out:	; 2 bytes @ 0x34
  1361  0034'                    	ds   2
  1362                           opt subtitle "HI-TECH Software Omniscient Code Generator (Lite mode) build 49521"
  1363  0036'                    pid_create@set:	; 2 bytes @ 0x36
  1364  0036'                    	ds   2
  1365                           opt subtitle "HI-TECH Software Omniscient Code Generator (Lite mode) build 49521"
  1366  0038'                    pid_create@kp:	; 3 bytes @ 0x38
  1367  0038'                    	ds   3
  1368                           opt subtitle "HI-TECH Software Omniscient Code Generator (Lite mode) build 49521"
  1369  003B'                    pid_create@ki:	; 3 bytes @ 0x3B
  1370  003B'                    	ds   2
  1371                           opt subtitle "HI-TECH Software Omniscient Code Generator (Lite mode) build 49521"
  1372  003D'                    pid_compute@dinput:	; 3 bytes @ 0x3D
  1373  003D'                    	ds   1
  1374                           opt subtitle "HI-TECH Software Omniscient Code Generator (Lite mode) build 49521"
  1375  003E'                    pid_create@kd:	; 3 bytes @ 0x3E
  1376  003E'                    	ds   2
  1377                           opt subtitle "HI-TECH Software Omniscient Code Generator (Lite mode) build 49521"
  1378  0040'                    _pid_compute$964:	; 3 bytes @ 0x40
  1379  0040'                    	ds   1
  1380  0041'                    ??_pid_create:	; 0 bytes @ 0x41
  1381  0041'                    	ds   2
  1382                           opt subtitle "HI-TECH Software Omniscient Code Generator (Lite mode) build 49521"
  1383  0043'                    pid_compute@now:	; 4 bytes @ 0x43
  1384  0043'                    	ds   4
  1385                           opt subtitle "HI-TECH Software Omniscient Code Generator (Lite mode) build 49521"
  1386  0047'                    pid_compute@error:	; 3 bytes @ 0x47
  1387  0047'                    	ds   3
  1388                           opt subtitle "HI-TECH Software Omniscient Code Generator (Lite mode) build 49521"
  1389  004A'                    pid_compute@in:	; 3 bytes @ 0x4A
  1390  004A'                    	ds   3
  1391                           opt subtitle "HI-TECH Software Omniscient Code Generator (Lite mode) build 49521"
  1392  004D'                    pid_compute@out:	; 3 bytes @ 0x4D
  1393  004D'                    	ds   3
  1394  0050'                    ?_main:	; 2 bytes @ 0x50
  1395  0050'                    main@argc:	; 2 bytes @ 0x50
  1396  0050'                    	ds   2
  1397  0052'                    main@argv:	; 3 bytes @ 0x52
  1398  0052'                    	ds   3
  1399  0055'                    ??_main:	; 0 bytes @ 0x55
  1400  0055'                    	ds   8
  1401                           opt subtitle "HI-TECH Software Omniscient Code Generator (Lite mode) build 49521"
  1402                           
  1403                           opt pagewidth 120
  1404                           
  1405                           	opt lm
  1406                           
  1407                           	processor	18F2550
  1408                           porta	equ	0F80h
  1409                           portb	equ	0F81h
  1410                           portc	equ	0F82h
  1411                           portd	equ	0F83h
  1412                           porte	equ	0F84h
  1413                           lata	equ	0F89h
  1414                           latb	equ	0F8Ah
  1415                           latc	equ	0F8Bh
  1416                           latd	equ	0F8Ch
  1417                           late	equ	0F8Dh
  1418                           trisa	equ	0F92h
  1419                           trisb	equ	0F93h
  1420                           trisc	equ	0F94h
  1421                           trisd	equ	0F95h
  1422                           trise	equ	0F96h
  1423                           pie1	equ	0F9Dh
  1424                           pir1	equ	0F9Eh
  1425                           ipr1	equ	0F9Fh
  1426                           pie2	equ	0FA0h
  1427                           pir2	equ	0FA1h
  1428                           ipr2	equ	0FA2h
  1429                           t3con	equ	0FB1h
  1430                           tmr3l	equ	0FB2h
  1431                           tmr3h	equ	0FB3h
  1432                           ccp1con	equ	0FBDh
  1433                           ccpr1l	equ	0FBEh
  1434                           ccpr1h	equ	0FBFh
  1435                           adcon1	equ	0FC1h
  1436                           adcon0	equ	0FC2h
  1437                           adresl	equ	0FC3h
  1438                           adresh	equ	0FC4h
  1439                           sspcon2	equ	0FC5h
  1440                           sspcon1	equ	0FC6h
  1441                           sspstat	equ	0FC7h
  1442                           sspadd	equ	0FC8h
  1443                           sspbuf	equ	0FC9h
  1444                           t2con	equ	0FCAh
  1445                           pr2	equ	0FCBh
  1446                           tmr2	equ	0FCCh
  1447                           t1con	equ	0FCDh
  1448                           tmr1l	equ	0FCEh
  1449                           tmr1h	equ	0FCFh
  1450                           rcon	equ	0FD0h
  1451                           wdtcon	equ	0FD1h
  1452                           lvdcon	equ	0FD2h
  1453                           osccon	equ	0FD3h
  1454                           t0con	equ	0FD5h
  1455                           tmr0l	equ	0FD6h
  1456                           tmr0h	equ	0FD7h
  1457                           status	equ	0FD8h
  1458                           fsr2	equ	0FD9h
  1459                           fsr2l	equ	0FD9h
  1460                           fsr2h	equ	0FDAh
  1461                           plusw2	equ	0FDBh
  1462                           preinc2	equ	0FDCh
  1463                           postdec2	equ	0FDDh
  1464                           postinc2	equ	0FDEh
  1465                           indf2	equ	0FDFh
  1466                           bsr	equ	0FE0h
  1467                           fsr1	equ	0FE1h
  1468                           fsr1l	equ	0FE1h
  1469                           fsr1h	equ	0FE2h
  1470                           plusw1	equ	0FE3h
  1471                           preinc1	equ	0FE4h
  1472                           postdec1	equ	0FE5h
  1473                           postinc1	equ	0FE6h
  1474                           indf1	equ	0FE7h
  1475                           wreg	equ	0FE8h
  1476                           fsr0	equ	0FE9h
  1477                           fsr0l	equ	0FE9h
  1478                           fsr0h	equ	0FEAh
  1479                           plusw0	equ	0FEBh
  1480                           preinc0	equ	0FECh
  1481                           postdec0	equ	0FEDh
  1482                           postinc0	equ	0FEEh
  1483                           indf0	equ	0FEFh
  1484                           intcon3	equ	0FF0h
  1485                           intcon2	equ	0FF1h
  1486                           intcon	equ	0FF2h
  1487                           prod	equ	0FF3h
  1488                           prodl	equ	0FF3h
  1489                           prodh	equ	0FF4h
  1490                           tablat	equ	0FF5h
  1491                           tblptr	equ	0FF6h
  1492                           tblptrl	equ	0FF6h
  1493                           tblptrh	equ	0FF7h
  1494                           tblptru	equ	0FF8h
  1495                           pcl	equ	0FF9h
  1496                           pclat	equ	0FFAh
  1497                           pclath	equ	0FFAh
  1498                           pclatu	equ	0FFBh
  1499                           stkptr	equ	0FFCh
  1500                           tosl	equ	0FFDh
  1501                           tosh	equ	0FFEh
  1502                           tosu	equ	0FFFh
  1503                           skipnz macro
  1504                           	btfsc	status,2
  1505                           	endm
  1506                           	global	__ramtop
  1507                           	global	__accesstop
  1508                           # 46 "C:\Program Files (x86)\Microchip\xc8\v1.12\include\pic18f2550.h"
  1509                           UFRM equ 0F66h ;# 
  1510                           # 52 "C:\Program Files (x86)\Microchip\xc8\v1.12\include\pic18f2550.h"
  1511                           UFRML equ 0F66h ;# 
  1512                           # 129 "C:\Program Files (x86)\Microchip\xc8\v1.12\include\pic18f2550.h"
  1513                           UFRMH equ 0F67h ;# 
  1514                           # 168 "C:\Program Files (x86)\Microchip\xc8\v1.12\include\pic18f2550.h"
  1515                           UIR equ 0F68h ;# 
  1516                           # 223 "C:\Program Files (x86)\Microchip\xc8\v1.12\include\pic18f2550.h"
  1517                           UIE equ 0F69h ;# 
  1518                           # 278 "C:\Program Files (x86)\Microchip\xc8\v1.12\include\pic18f2550.h"
  1519                           UEIR equ 0F6Ah ;# 
  1520                           # 328 "C:\Program Files (x86)\Microchip\xc8\v1.12\include\pic18f2550.h"
  1521                           UEIE equ 0F6Bh ;# 
  1522                           # 378 "C:\Program Files (x86)\Microchip\xc8\v1.12\include\pic18f2550.h"
  1523                           USTAT equ 0F6Ch ;# 
  1524                           # 437 "C:\Program Files (x86)\Microchip\xc8\v1.12\include\pic18f2550.h"
  1525                           UCON equ 0F6Dh ;# 
  1526                           # 487 "C:\Program Files (x86)\Microchip\xc8\v1.12\include\pic18f2550.h"
  1527                           UADDR equ 0F6Eh ;# 
  1528                           # 550 "C:\Program Files (x86)\Microchip\xc8\v1.12\include\pic18f2550.h"
  1529                           UCFG equ 0F6Fh ;# 
  1530                           # 631 "C:\Program Files (x86)\Microchip\xc8\v1.12\include\pic18f2550.h"
  1531                           UEP0 equ 0F70h ;# 
  1532                           # 762 "C:\Program Files (x86)\Microchip\xc8\v1.12\include\pic18f2550.h"
  1533                           UEP1 equ 0F71h ;# 
  1534                           # 893 "C:\Program Files (x86)\Microchip\xc8\v1.12\include\pic18f2550.h"
  1535                           UEP2 equ 0F72h ;# 
  1536                           # 1024 "C:\Program Files (x86)\Microchip\xc8\v1.12\include\pic18f2550.h"
  1537                           UEP3 equ 0F73h ;# 
  1538                           # 1155 "C:\Program Files (x86)\Microchip\xc8\v1.12\include\pic18f2550.h"
  1539                           UEP4 equ 0F74h ;# 
  1540                           # 1286 "C:\Program Files (x86)\Microchip\xc8\v1.12\include\pic18f2550.h"
  1541                           UEP5 equ 0F75h ;# 
  1542                           # 1417 "C:\Program Files (x86)\Microchip\xc8\v1.12\include\pic18f2550.h"
  1543                           UEP6 equ 0F76h ;# 
  1544                           # 1548 "C:\Program Files (x86)\Microchip\xc8\v1.12\include\pic18f2550.h"
  1545                           UEP7 equ 0F77h ;# 
  1546                           # 1679 "C:\Program Files (x86)\Microchip\xc8\v1.12\include\pic18f2550.h"
  1547                           UEP8 equ 0F78h ;# 
  1548                           # 1766 "C:\Program Files (x86)\Microchip\xc8\v1.12\include\pic18f2550.h"
  1549                           UEP9 equ 0F79h ;# 
  1550                           # 1853 "C:\Program Files (x86)\Microchip\xc8\v1.12\include\pic18f2550.h"
  1551                           UEP10 equ 0F7Ah ;# 
  1552                           # 1940 "C:\Program Files (x86)\Microchip\xc8\v1.12\include\pic18f2550.h"
  1553                           UEP11 equ 0F7Bh ;# 
  1554                           # 2027 "C:\Program Files (x86)\Microchip\xc8\v1.12\include\pic18f2550.h"
  1555                           UEP12 equ 0F7Ch ;# 
  1556                           # 2114 "C:\Program Files (x86)\Microchip\xc8\v1.12\include\pic18f2550.h"
  1557                           UEP13 equ 0F7Dh ;# 
  1558                           # 2201 "C:\Program Files (x86)\Microchip\xc8\v1.12\include\pic18f2550.h"
  1559                           UEP14 equ 0F7Eh ;# 
  1560                           # 2288 "C:\Program Files (x86)\Microchip\xc8\v1.12\include\pic18f2550.h"
  1561                           UEP15 equ 0F7Fh ;# 
  1562                           # 2375 "C:\Program Files (x86)\Microchip\xc8\v1.12\include\pic18f2550.h"
  1563                           PORTA equ 0F80h ;# 
  1564                           # 2531 "C:\Program Files (x86)\Microchip\xc8\v1.12\include\pic18f2550.h"
  1565                           PORTB equ 0F81h ;# 
  1566                           # 2640 "C:\Program Files (x86)\Microchip\xc8\v1.12\include\pic18f2550.h"
  1567                           PORTC equ 0F82h ;# 
  1568                           # 2793 "C:\Program Files (x86)\Microchip\xc8\v1.12\include\pic18f2550.h"
  1569                           PORTE equ 0F84h ;# 
  1570                           # 3026 "C:\Program Files (x86)\Microchip\xc8\v1.12\include\pic18f2550.h"
  1571                           LATA equ 0F89h ;# 
  1572                           # 3161 "C:\Program Files (x86)\Microchip\xc8\v1.12\include\pic18f2550.h"
  1573                           LATB equ 0F8Ah ;# 
  1574                           # 3293 "C:\Program Files (x86)\Microchip\xc8\v1.12\include\pic18f2550.h"
  1575                           LATC equ 0F8Bh ;# 
  1576                           # 3408 "C:\Program Files (x86)\Microchip\xc8\v1.12\include\pic18f2550.h"
  1577                           TRISA equ 0F92h ;# 
  1578                           # 3413 "C:\Program Files (x86)\Microchip\xc8\v1.12\include\pic18f2550.h"
  1579                           DDRA equ 0F92h ;# 
  1580                           # 3605 "C:\Program Files (x86)\Microchip\xc8\v1.12\include\pic18f2550.h"
  1581                           TRISB equ 0F93h ;# 
  1582                           # 3610 "C:\Program Files (x86)\Microchip\xc8\v1.12\include\pic18f2550.h"
  1583                           DDRB equ 0F93h ;# 
  1584                           # 3826 "C:\Program Files (x86)\Microchip\xc8\v1.12\include\pic18f2550.h"
  1585                           TRISC equ 0F94h ;# 
  1586                           # 3831 "C:\Program Files (x86)\Microchip\xc8\v1.12\include\pic18f2550.h"
  1587                           DDRC equ 0F94h ;# 
  1588                           # 3997 "C:\Program Files (x86)\Microchip\xc8\v1.12\include\pic18f2550.h"
  1589                           OSCTUNE equ 0F9Bh ;# 
  1590                           # 4055 "C:\Program Files (x86)\Microchip\xc8\v1.12\include\pic18f2550.h"
  1591                           PIE1 equ 0F9Dh ;# 
  1592                           # 4128 "C:\Program Files (x86)\Microchip\xc8\v1.12\include\pic18f2550.h"
  1593                           PIR1 equ 0F9Eh ;# 
  1594                           # 4201 "C:\Program Files (x86)\Microchip\xc8\v1.12\include\pic18f2550.h"
  1595                           IPR1 equ 0F9Fh ;# 
  1596                           # 4274 "C:\Program Files (x86)\Microchip\xc8\v1.12\include\pic18f2550.h"
  1597                           PIE2 equ 0FA0h ;# 
  1598                           # 4344 "C:\Program Files (x86)\Microchip\xc8\v1.12\include\pic18f2550.h"
  1599                           PIR2 equ 0FA1h ;# 
  1600                           # 4414 "C:\Program Files (x86)\Microchip\xc8\v1.12\include\pic18f2550.h"
  1601                           IPR2 equ 0FA2h ;# 
  1602                           # 4484 "C:\Program Files (x86)\Microchip\xc8\v1.12\include\pic18f2550.h"
  1603                           EECON1 equ 0FA6h ;# 
  1604                           # 4549 "C:\Program Files (x86)\Microchip\xc8\v1.12\include\pic18f2550.h"
  1605                           EECON2 equ 0FA7h ;# 
  1606                           # 4555 "C:\Program Files (x86)\Microchip\xc8\v1.12\include\pic18f2550.h"
  1607                           EEDATA equ 0FA8h ;# 
  1608                           # 4561 "C:\Program Files (x86)\Microchip\xc8\v1.12\include\pic18f2550.h"
  1609                           EEADR equ 0FA9h ;# 
  1610                           # 4567 "C:\Program Files (x86)\Microchip\xc8\v1.12\include\pic18f2550.h"
  1611                           RCSTA equ 0FABh ;# 
  1612                           # 4572 "C:\Program Files (x86)\Microchip\xc8\v1.12\include\pic18f2550.h"
  1613                           RCSTA1 equ 0FABh ;# 
  1614                           # 4724 "C:\Program Files (x86)\Microchip\xc8\v1.12\include\pic18f2550.h"
  1615                           TXSTA equ 0FACh ;# 
  1616                           # 4729 "C:\Program Files (x86)\Microchip\xc8\v1.12\include\pic18f2550.h"
  1617                           TXSTA1 equ 0FACh ;# 
  1618                           # 4987 "C:\Program Files (x86)\Microchip\xc8\v1.12\include\pic18f2550.h"
  1619                           TXREG equ 0FADh ;# 
  1620                           # 4992 "C:\Program Files (x86)\Microchip\xc8\v1.12\include\pic18f2550.h"
  1621                           TXREG1 equ 0FADh ;# 
  1622                           # 4998 "C:\Program Files (x86)\Microchip\xc8\v1.12\include\pic18f2550.h"
  1623                           RCREG equ 0FAEh ;# 
  1624                           # 5003 "C:\Program Files (x86)\Microchip\xc8\v1.12\include\pic18f2550.h"
  1625                           RCREG1 equ 0FAEh ;# 
  1626                           # 5009 "C:\Program Files (x86)\Microchip\xc8\v1.12\include\pic18f2550.h"
  1627                           SPBRG equ 0FAFh ;# 
  1628                           # 5014 "C:\Program Files (x86)\Microchip\xc8\v1.12\include\pic18f2550.h"
  1629                           SPBRG1 equ 0FAFh ;# 
  1630                           # 5020 "C:\Program Files (x86)\Microchip\xc8\v1.12\include\pic18f2550.h"
  1631                           SPBRGH equ 0FB0h ;# 
  1632                           # 5026 "C:\Program Files (x86)\Microchip\xc8\v1.12\include\pic18f2550.h"
  1633                           T3CON equ 0FB1h ;# 
  1634                           # 5148 "C:\Program Files (x86)\Microchip\xc8\v1.12\include\pic18f2550.h"
  1635                           TMR3 equ 0FB2h ;# 
  1636                           # 5154 "C:\Program Files (x86)\Microchip\xc8\v1.12\include\pic18f2550.h"
  1637                           TMR3L equ 0FB2h ;# 
  1638                           # 5160 "C:\Program Files (x86)\Microchip\xc8\v1.12\include\pic18f2550.h"
  1639                           TMR3H equ 0FB3h ;# 
  1640                           # 5166 "C:\Program Files (x86)\Microchip\xc8\v1.12\include\pic18f2550.h"
  1641                           CMCON equ 0FB4h ;# 
  1642                           # 5261 "C:\Program Files (x86)\Microchip\xc8\v1.12\include\pic18f2550.h"
  1643                           CVRCON equ 0FB5h ;# 
  1644                           # 5345 "C:\Program Files (x86)\Microchip\xc8\v1.12\include\pic18f2550.h"
  1645                           ECCP1AS equ 0FB6h ;# 
  1646                           # 5350 "C:\Program Files (x86)\Microchip\xc8\v1.12\include\pic18f2550.h"
  1647                           CCP1AS equ 0FB6h ;# 
  1648                           # 5474 "C:\Program Files (x86)\Microchip\xc8\v1.12\include\pic18f2550.h"
  1649                           ECCP1DEL equ 0FB7h ;# 
  1650                           # 5479 "C:\Program Files (x86)\Microchip\xc8\v1.12\include\pic18f2550.h"
  1651                           CCP1DEL equ 0FB7h ;# 
  1652                           # 5513 "C:\Program Files (x86)\Microchip\xc8\v1.12\include\pic18f2550.h"
  1653                           BAUDCON equ 0FB8h ;# 
  1654                           # 5518 "C:\Program Files (x86)\Microchip\xc8\v1.12\include\pic18f2550.h"
  1655                           BAUDCTL equ 0FB8h ;# 
  1656                           # 5692 "C:\Program Files (x86)\Microchip\xc8\v1.12\include\pic18f2550.h"
  1657                           CCP2CON equ 0FBAh ;# 
  1658                           # 5755 "C:\Program Files (x86)\Microchip\xc8\v1.12\include\pic18f2550.h"
  1659                           CCPR2 equ 0FBBh ;# 
  1660                           # 5761 "C:\Program Files (x86)\Microchip\xc8\v1.12\include\pic18f2550.h"
  1661                           CCPR2L equ 0FBBh ;# 
  1662                           # 5767 "C:\Program Files (x86)\Microchip\xc8\v1.12\include\pic18f2550.h"
  1663                           CCPR2H equ 0FBCh ;# 
  1664                           # 5773 "C:\Program Files (x86)\Microchip\xc8\v1.12\include\pic18f2550.h"
  1665                           CCP1CON equ 0FBDh ;# 
  1666                           # 5836 "C:\Program Files (x86)\Microchip\xc8\v1.12\include\pic18f2550.h"
  1667                           CCPR1 equ 0FBEh ;# 
  1668                           # 5842 "C:\Program Files (x86)\Microchip\xc8\v1.12\include\pic18f2550.h"
  1669                           CCPR1L equ 0FBEh ;# 
  1670                           # 5848 "C:\Program Files (x86)\Microchip\xc8\v1.12\include\pic18f2550.h"
  1671                           CCPR1H equ 0FBFh ;# 
  1672                           # 5854 "C:\Program Files (x86)\Microchip\xc8\v1.12\include\pic18f2550.h"
  1673                           ADCON2 equ 0FC0h ;# 
  1674                           # 5924 "C:\Program Files (x86)\Microchip\xc8\v1.12\include\pic18f2550.h"
  1675                           ADCON1 equ 0FC1h ;# 
  1676                           # 6014 "C:\Program Files (x86)\Microchip\xc8\v1.12\include\pic18f2550.h"
  1677                           ADCON0 equ 0FC2h ;# 
  1678                           # 6136 "C:\Program Files (x86)\Microchip\xc8\v1.12\include\pic18f2550.h"
  1679                           ADRES equ 0FC3h ;# 
  1680                           # 6142 "C:\Program Files (x86)\Microchip\xc8\v1.12\include\pic18f2550.h"
  1681                           ADRESL equ 0FC3h ;# 
  1682                           # 6148 "C:\Program Files (x86)\Microchip\xc8\v1.12\include\pic18f2550.h"
  1683                           ADRESH equ 0FC4h ;# 
  1684                           # 6154 "C:\Program Files (x86)\Microchip\xc8\v1.12\include\pic18f2550.h"
  1685                           SSPCON2 equ 0FC5h ;# 
  1686                           # 6215 "C:\Program Files (x86)\Microchip\xc8\v1.12\include\pic18f2550.h"
  1687                           SSPCON1 equ 0FC6h ;# 
  1688                           # 6284 "C:\Program Files (x86)\Microchip\xc8\v1.12\include\pic18f2550.h"
  1689                           SSPSTAT equ 0FC7h ;# 
  1690                           # 6550 "C:\Program Files (x86)\Microchip\xc8\v1.12\include\pic18f2550.h"
  1691                           SSPADD equ 0FC8h ;# 
  1692                           # 6556 "C:\Program Files (x86)\Microchip\xc8\v1.12\include\pic18f2550.h"
  1693                           SSPBUF equ 0FC9h ;# 
  1694                           # 6562 "C:\Program Files (x86)\Microchip\xc8\v1.12\include\pic18f2550.h"
  1695                           T2CON equ 0FCAh ;# 
  1696                           # 6659 "C:\Program Files (x86)\Microchip\xc8\v1.12\include\pic18f2550.h"
  1697                           PR2 equ 0FCBh ;# 
  1698                           # 6664 "C:\Program Files (x86)\Microchip\xc8\v1.12\include\pic18f2550.h"
  1699                           MEMCON equ 0FCBh ;# 
  1700                           # 6670 "C:\Program Files (x86)\Microchip\xc8\v1.12\include\pic18f2550.h"
  1701                           TMR2 equ 0FCCh ;# 
  1702                           # 6676 "C:\Program Files (x86)\Microchip\xc8\v1.12\include\pic18f2550.h"
  1703                           T1CON equ 0FCDh ;# 
  1704                           # 6780 "C:\Program Files (x86)\Microchip\xc8\v1.12\include\pic18f2550.h"
  1705                           TMR1 equ 0FCEh ;# 
  1706                           # 6786 "C:\Program Files (x86)\Microchip\xc8\v1.12\include\pic18f2550.h"
  1707                           TMR1L equ 0FCEh ;# 
  1708                           # 6792 "C:\Program Files (x86)\Microchip\xc8\v1.12\include\pic18f2550.h"
  1709                           TMR1H equ 0FCFh ;# 
  1710                           # 6798 "C:\Program Files (x86)\Microchip\xc8\v1.12\include\pic18f2550.h"
  1711                           RCON equ 0FD0h ;# 
  1712                           # 6946 "C:\Program Files (x86)\Microchip\xc8\v1.12\include\pic18f2550.h"
  1713                           WDTCON equ 0FD1h ;# 
  1714                           # 6973 "C:\Program Files (x86)\Microchip\xc8\v1.12\include\pic18f2550.h"
  1715                           HLVDCON equ 0FD2h ;# 
  1716                           # 6978 "C:\Program Files (x86)\Microchip\xc8\v1.12\include\pic18f2550.h"
  1717                           LVDCON equ 0FD2h ;# 
  1718                           # 7242 "C:\Program Files (x86)\Microchip\xc8\v1.12\include\pic18f2550.h"
  1719                           OSCCON equ 0FD3h ;# 
  1720                           # 7324 "C:\Program Files (x86)\Microchip\xc8\v1.12\include\pic18f2550.h"
  1721                           T0CON equ 0FD5h ;# 
  1722                           # 7393 "C:\Program Files (x86)\Microchip\xc8\v1.12\include\pic18f2550.h"
  1723                           TMR0 equ 0FD6h ;# 
  1724                           # 7399 "C:\Program Files (x86)\Microchip\xc8\v1.12\include\pic18f2550.h"
  1725                           TMR0L equ 0FD6h ;# 
  1726                           # 7405 "C:\Program Files (x86)\Microchip\xc8\v1.12\include\pic18f2550.h"
  1727                           TMR0H equ 0FD7h ;# 
  1728                           # 7411 "C:\Program Files (x86)\Microchip\xc8\v1.12\include\pic18f2550.h"
  1729                           STATUS equ 0FD8h ;# 
  1730                           # 7489 "C:\Program Files (x86)\Microchip\xc8\v1.12\include\pic18f2550.h"
  1731                           FSR2 equ 0FD9h ;# 
  1732                           # 7495 "C:\Program Files (x86)\Microchip\xc8\v1.12\include\pic18f2550.h"
  1733                           FSR2L equ 0FD9h ;# 
  1734                           # 7501 "C:\Program Files (x86)\Microchip\xc8\v1.12\include\pic18f2550.h"
  1735                           FSR2H equ 0FDAh ;# 
  1736                           # 7507 "C:\Program Files (x86)\Microchip\xc8\v1.12\include\pic18f2550.h"
  1737                           PLUSW2 equ 0FDBh ;# 
  1738                           # 7513 "C:\Program Files (x86)\Microchip\xc8\v1.12\include\pic18f2550.h"
  1739                           PREINC2 equ 0FDCh ;# 
  1740                           # 7519 "C:\Program Files (x86)\Microchip\xc8\v1.12\include\pic18f2550.h"
  1741                           POSTDEC2 equ 0FDDh ;# 
  1742                           # 7525 "C:\Program Files (x86)\Microchip\xc8\v1.12\include\pic18f2550.h"
  1743                           POSTINC2 equ 0FDEh ;# 
  1744                           # 7531 "C:\Program Files (x86)\Microchip\xc8\v1.12\include\pic18f2550.h"
  1745                           INDF2 equ 0FDFh ;# 
  1746                           # 7537 "C:\Program Files (x86)\Microchip\xc8\v1.12\include\pic18f2550.h"
  1747                           BSR equ 0FE0h ;# 
  1748                           # 7543 "C:\Program Files (x86)\Microchip\xc8\v1.12\include\pic18f2550.h"
  1749                           FSR1 equ 0FE1h ;# 
  1750                           # 7549 "C:\Program Files (x86)\Microchip\xc8\v1.12\include\pic18f2550.h"
  1751                           FSR1L equ 0FE1h ;# 
  1752                           # 7555 "C:\Program Files (x86)\Microchip\xc8\v1.12\include\pic18f2550.h"
  1753                           FSR1H equ 0FE2h ;# 
  1754                           # 7561 "C:\Program Files (x86)\Microchip\xc8\v1.12\include\pic18f2550.h"
  1755                           PLUSW1 equ 0FE3h ;# 
  1756                           # 7567 "C:\Program Files (x86)\Microchip\xc8\v1.12\include\pic18f2550.h"
  1757                           PREINC1 equ 0FE4h ;# 
  1758                           # 7573 "C:\Program Files (x86)\Microchip\xc8\v1.12\include\pic18f2550.h"
  1759                           POSTDEC1 equ 0FE5h ;# 
  1760                           # 7579 "C:\Program Files (x86)\Microchip\xc8\v1.12\include\pic18f2550.h"
  1761                           POSTINC1 equ 0FE6h ;# 
  1762                           # 7585 "C:\Program Files (x86)\Microchip\xc8\v1.12\include\pic18f2550.h"
  1763                           INDF1 equ 0FE7h ;# 
  1764                           # 7591 "C:\Program Files (x86)\Microchip\xc8\v1.12\include\pic18f2550.h"
  1765                           WREG equ 0FE8h ;# 
  1766                           # 7597 "C:\Program Files (x86)\Microchip\xc8\v1.12\include\pic18f2550.h"
  1767                           FSR0 equ 0FE9h ;# 
  1768                           # 7603 "C:\Program Files (x86)\Microchip\xc8\v1.12\include\pic18f2550.h"
  1769                           FSR0L equ 0FE9h ;# 
  1770                           # 7609 "C:\Program Files (x86)\Microchip\xc8\v1.12\include\pic18f2550.h"
  1771                           FSR0H equ 0FEAh ;# 
  1772                           # 7615 "C:\Program Files (x86)\Microchip\xc8\v1.12\include\pic18f2550.h"
  1773                           PLUSW0 equ 0FEBh ;# 
  1774                           # 7621 "C:\Program Files (x86)\Microchip\xc8\v1.12\include\pic18f2550.h"
  1775                           PREINC0 equ 0FECh ;# 
  1776                           # 7627 "C:\Program Files (x86)\Microchip\xc8\v1.12\include\pic18f2550.h"
  1777                           POSTDEC0 equ 0FEDh ;# 
  1778                           # 7633 "C:\Program Files (x86)\Microchip\xc8\v1.12\include\pic18f2550.h"
  1779                           POSTINC0 equ 0FEEh ;# 
  1780                           # 7639 "C:\Program Files (x86)\Microchip\xc8\v1.12\include\pic18f2550.h"
  1781                           INDF0 equ 0FEFh ;# 
  1782                           # 7645 "C:\Program Files (x86)\Microchip\xc8\v1.12\include\pic18f2550.h"
  1783                           INTCON3 equ 0FF0h ;# 
  1784                           # 7736 "C:\Program Files (x86)\Microchip\xc8\v1.12\include\pic18f2550.h"
  1785                           INTCON2 equ 0FF1h ;# 
  1786                           # 7812 "C:\Program Files (x86)\Microchip\xc8\v1.12\include\pic18f2550.h"
  1787                           INTCON equ 0FF2h ;# 
  1788                           # 7948 "C:\Program Files (x86)\Microchip\xc8\v1.12\include\pic18f2550.h"
  1789                           PROD equ 0FF3h ;# 
  1790                           # 7954 "C:\Program Files (x86)\Microchip\xc8\v1.12\include\pic18f2550.h"
  1791                           PRODL equ 0FF3h ;# 
  1792                           # 7960 "C:\Program Files (x86)\Microchip\xc8\v1.12\include\pic18f2550.h"
  1793                           PRODH equ 0FF4h ;# 
  1794                           # 7966 "C:\Program Files (x86)\Microchip\xc8\v1.12\include\pic18f2550.h"
  1795                           TABLAT equ 0FF5h ;# 
  1796                           # 7974 "C:\Program Files (x86)\Microchip\xc8\v1.12\include\pic18f2550.h"
  1797                           TBLPTR equ 0FF6h ;# 
  1798                           # 7980 "C:\Program Files (x86)\Microchip\xc8\v1.12\include\pic18f2550.h"
  1799                           TBLPTRL equ 0FF6h ;# 
  1800                           # 7986 "C:\Program Files (x86)\Microchip\xc8\v1.12\include\pic18f2550.h"
  1801                           TBLPTRH equ 0FF7h ;# 
  1802                           # 7992 "C:\Program Files (x86)\Microchip\xc8\v1.12\include\pic18f2550.h"
  1803                           TBLPTRU equ 0FF8h ;# 
  1804                           # 8000 "C:\Program Files (x86)\Microchip\xc8\v1.12\include\pic18f2550.h"
  1805                           PCLAT equ 0FF9h ;# 
  1806                           # 8007 "C:\Program Files (x86)\Microchip\xc8\v1.12\include\pic18f2550.h"
  1807                           PC equ 0FF9h ;# 
  1808                           # 8013 "C:\Program Files (x86)\Microchip\xc8\v1.12\include\pic18f2550.h"
  1809                           PCL equ 0FF9h ;# 
  1810                           # 8019 "C:\Program Files (x86)\Microchip\xc8\v1.12\include\pic18f2550.h"
  1811                           PCLATH equ 0FFAh ;# 
  1812                           # 8025 "C:\Program Files (x86)\Microchip\xc8\v1.12\include\pic18f2550.h"
  1813                           PCLATU equ 0FFBh ;# 
  1814                           # 8031 "C:\Program Files (x86)\Microchip\xc8\v1.12\include\pic18f2550.h"
  1815                           STKPTR equ 0FFCh ;# 
  1816                           # 8106 "C:\Program Files (x86)\Microchip\xc8\v1.12\include\pic18f2550.h"
  1817                           TOS equ 0FFDh ;# 
  1818                           # 8112 "C:\Program Files (x86)\Microchip\xc8\v1.12\include\pic18f2550.h"
  1819                           TOSL equ 0FFDh ;# 
  1820                           # 8118 "C:\Program Files (x86)\Microchip\xc8\v1.12\include\pic18f2550.h"
  1821                           TOSH equ 0FFEh ;# 
  1822                           # 8124 "C:\Program Files (x86)\Microchip\xc8\v1.12\include\pic18f2550.h"
  1823                           TOSU equ 0FFFh ;# 
  1824                           # 46 "C:\Program Files (x86)\Microchip\xc8\v1.12\include\pic18f2550.h"
  1825                           UFRM equ 0F66h ;# 
  1826                           # 52 "C:\Program Files (x86)\Microchip\xc8\v1.12\include\pic18f2550.h"
  1827                           UFRML equ 0F66h ;# 
  1828                           # 129 "C:\Program Files (x86)\Microchip\xc8\v1.12\include\pic18f2550.h"
  1829                           UFRMH equ 0F67h ;# 
  1830                           # 168 "C:\Program Files (x86)\Microchip\xc8\v1.12\include\pic18f2550.h"
  1831                           UIR equ 0F68h ;# 
  1832                           # 223 "C:\Program Files (x86)\Microchip\xc8\v1.12\include\pic18f2550.h"
  1833                           UIE equ 0F69h ;# 
  1834                           # 278 "C:\Program Files (x86)\Microchip\xc8\v1.12\include\pic18f2550.h"
  1835                           UEIR equ 0F6Ah ;# 
  1836                           # 328 "C:\Program Files (x86)\Microchip\xc8\v1.12\include\pic18f2550.h"
  1837                           UEIE equ 0F6Bh ;# 
  1838                           # 378 "C:\Program Files (x86)\Microchip\xc8\v1.12\include\pic18f2550.h"
  1839                           USTAT equ 0F6Ch ;# 
  1840                           # 437 "C:\Program Files (x86)\Microchip\xc8\v1.12\include\pic18f2550.h"
  1841                           UCON equ 0F6Dh ;# 
  1842                           # 487 "C:\Program Files (x86)\Microchip\xc8\v1.12\include\pic18f2550.h"
  1843                           UADDR equ 0F6Eh ;# 
  1844                           # 550 "C:\Program Files (x86)\Microchip\xc8\v1.12\include\pic18f2550.h"
  1845                           UCFG equ 0F6Fh ;# 
  1846                           # 631 "C:\Program Files (x86)\Microchip\xc8\v1.12\include\pic18f2550.h"
  1847                           UEP0 equ 0F70h ;# 
  1848                           # 762 "C:\Program Files (x86)\Microchip\xc8\v1.12\include\pic18f2550.h"
  1849                           UEP1 equ 0F71h ;# 
  1850                           # 893 "C:\Program Files (x86)\Microchip\xc8\v1.12\include\pic18f2550.h"
  1851                           UEP2 equ 0F72h ;# 
  1852                           # 1024 "C:\Program Files (x86)\Microchip\xc8\v1.12\include\pic18f2550.h"
  1853                           UEP3 equ 0F73h ;# 
  1854                           # 1155 "C:\Program Files (x86)\Microchip\xc8\v1.12\include\pic18f2550.h"
  1855                           UEP4 equ 0F74h ;# 
  1856                           # 1286 "C:\Program Files (x86)\Microchip\xc8\v1.12\include\pic18f2550.h"
  1857                           UEP5 equ 0F75h ;# 
  1858                           # 1417 "C:\Program Files (x86)\Microchip\xc8\v1.12\include\pic18f2550.h"
  1859                           UEP6 equ 0F76h ;# 
  1860                           # 1548 "C:\Program Files (x86)\Microchip\xc8\v1.12\include\pic18f2550.h"
  1861                           UEP7 equ 0F77h ;# 
  1862                           # 1679 "C:\Program Files (x86)\Microchip\xc8\v1.12\include\pic18f2550.h"
  1863                           UEP8 equ 0F78h ;# 
  1864                           # 1766 "C:\Program Files (x86)\Microchip\xc8\v1.12\include\pic18f2550.h"
  1865                           UEP9 equ 0F79h ;# 
  1866                           # 1853 "C:\Program Files (x86)\Microchip\xc8\v1.12\include\pic18f2550.h"
  1867                           UEP10 equ 0F7Ah ;# 
  1868                           # 1940 "C:\Program Files (x86)\Microchip\xc8\v1.12\include\pic18f2550.h"
  1869                           UEP11 equ 0F7Bh ;# 
  1870                           # 2027 "C:\Program Files (x86)\Microchip\xc8\v1.12\include\pic18f2550.h"
  1871                           UEP12 equ 0F7Ch ;# 
  1872                           # 2114 "C:\Program Files (x86)\Microchip\xc8\v1.12\include\pic18f2550.h"
  1873                           UEP13 equ 0F7Dh ;# 
  1874                           # 2201 "C:\Program Files (x86)\Microchip\xc8\v1.12\include\pic18f2550.h"
  1875                           UEP14 equ 0F7Eh ;# 
  1876                           # 2288 "C:\Program Files (x86)\Microchip\xc8\v1.12\include\pic18f2550.h"
  1877                           UEP15 equ 0F7Fh ;# 
  1878                           # 2375 "C:\Program Files (x86)\Microchip\xc8\v1.12\include\pic18f2550.h"
  1879                           PORTA equ 0F80h ;# 
  1880                           # 2531 "C:\Program Files (x86)\Microchip\xc8\v1.12\include\pic18f2550.h"
  1881                           PORTB equ 0F81h ;# 
  1882                           # 2640 "C:\Program Files (x86)\Microchip\xc8\v1.12\include\pic18f2550.h"
  1883                           PORTC equ 0F82h ;# 
  1884                           # 2793 "C:\Program Files (x86)\Microchip\xc8\v1.12\include\pic18f2550.h"
  1885                           PORTE equ 0F84h ;# 
  1886                           # 3026 "C:\Program Files (x86)\Microchip\xc8\v1.12\include\pic18f2550.h"
  1887                           LATA equ 0F89h ;# 
  1888                           # 3161 "C:\Program Files (x86)\Microchip\xc8\v1.12\include\pic18f2550.h"
  1889                           LATB equ 0F8Ah ;# 
  1890                           # 3293 "C:\Program Files (x86)\Microchip\xc8\v1.12\include\pic18f2550.h"
  1891                           LATC equ 0F8Bh ;# 
  1892                           # 3408 "C:\Program Files (x86)\Microchip\xc8\v1.12\include\pic18f2550.h"
  1893                           TRISA equ 0F92h ;# 
  1894                           # 3413 "C:\Program Files (x86)\Microchip\xc8\v1.12\include\pic18f2550.h"
  1895                           DDRA equ 0F92h ;# 
  1896                           # 3605 "C:\Program Files (x86)\Microchip\xc8\v1.12\include\pic18f2550.h"
  1897                           TRISB equ 0F93h ;# 
  1898                           # 3610 "C:\Program Files (x86)\Microchip\xc8\v1.12\include\pic18f2550.h"
  1899                           DDRB equ 0F93h ;# 
  1900                           # 3826 "C:\Program Files (x86)\Microchip\xc8\v1.12\include\pic18f2550.h"
  1901  0000                     	__size_of_main	equ	__end_of_main-_main
  1902                           opt subtitle "HI-TECH Software Omniscient Code Generator (Lite mode) build 49521"
  1903  0000'                    _main:
  1904                           opt subtitle "HI-TECH Software Omniscient Code Generator (Lite mode) build 49521"
  1905                           
  1906                           opt pagewidth 120
  1907  0000'                    l2179:
  1908                           opt subtitle "HI-TECH Software Omniscient Code Generator (Lite mode) build 49521"
  1909  0000' 0E00               	movlw	low(0)
  1910  0002' 0100               	movlb	0	; () banked
  1911  0004' 0100               	movlb	0	; () banked
  1912  0006' 6F00'              	movwf	((main@lastrun))&0ffh
  1913  0008' 0E00               	movlw	high(0)
  1914  000A' 0100               	movlb	0	; () banked
  1915  000C' 6F00'              	movwf	((main@lastrun+1))&0ffh
  1916  000E' 0E00               	movlw	low highword(0)
  1917  0010' 0100               	movlb	0	; () banked
  1918  0012' 6F00'              	movwf	((main@lastrun+2))&0ffh
  1919  0014' 0E00               	movlw	high highword(0)
  1920  0016' 0100               	movlb	0	; () banked
  1921  0018' 6F00'              	movwf	((main@lastrun+3))&0ffh
  1922                           opt subtitle "HI-TECH Software Omniscient Code Generator (Lite mode) build 49521"
  1923                           
  1924                           opt pagewidth 120
  1925                           
  1926                           	opt lm
  1927  001A' 0E00               	movlw	high(0)
  1928  001C' 0100               	movlb	0	; () banked
  1929  001E' 0100               	movlb	0	; () banked
  1930  0020' 6F00'              	movwf	((main@pid1+1))&0ffh
  1931  0022' 0E00               	movlw	low(0)
  1932  0024' 0100               	movlb	0	; () banked
  1933  0026' 6F00'              	movwf	((main@pid1))&0ffh
  1934  0028' 0E00               	movlw	high(0)
  1935  002A' 0100               	movlb	0	; () banked
  1936  002C' 0100               	movlb	0	; () banked
  1937  002E' 6F00'              	movwf	((main@pid2+1))&0ffh
  1938  0030' 0E00               	movlw	low(0)
  1939  0032' 0100               	movlb	0	; () banked
  1940  0034' 6F00'              	movwf	((main@pid2))&0ffh
  1941                           opt subtitle "HI-TECH Software Omniscient Code Generator (Lite mode) build 49521"
  1942                           
  1943                           opt pagewidth 120
  1944  0036' 0E00               	movlw	low(0)
  1945  0038' 0100               	movlb	0	; () banked
  1946  003A' 0100               	movlb	0	; () banked
  1947  003C' 6F00'              	movwf	((main@tcpl1))&0ffh
  1948  003E' 0E00               	movlw	high(0)
  1949  0040' 0100               	movlb	0	; () banked
  1950  0042' 6F00'              	movwf	((main@tcpl1+1))&0ffh
  1951  0044' 0E00               	movlw	low highword(0)
  1952  0046' 0100               	movlb	0	; () banked
  1953  0048' 6F00'              	movwf	((main@tcpl1+2))&0ffh
  1954  004A' 0E00               	movlw	high highword(0)
  1955  004C' 0100               	movlb	0	; () banked
  1956  004E' 6F00'              	movwf	((main@tcpl1+3))&0ffh
  1957  0050' 0E00               	movlw	low(0)
  1958  0052' 0100               	movlb	0	; () banked
  1959  0054' 0100               	movlb	0	; () banked
  1960  0056' 6F00'              	movwf	((main@tcpl2))&0ffh
  1961  0058' 0E00               	movlw	high(0)
  1962  005A' 0100               	movlb	0	; () banked
  1963  005C' 6F00'              	movwf	((main@tcpl2+1))&0ffh
  1964  005E' 0E00               	movlw	low highword(0)
  1965  0060' 0100               	movlb	0	; () banked
  1966  0062' 6F00'              	movwf	((main@tcpl2+2))&0ffh
  1967  0064' 0E00               	movlw	high highword(0)
  1968  0066' 0100               	movlb	0	; () banked
  1969  0068' 6F00'              	movwf	((main@tcpl2+3))&0ffh
  1970                           opt subtitle "HI-TECH Software Omniscient Code Generator (Lite mode) build 49521"
  1971                           
  1972  006A'                    l2181:; BSR set to: 0
  1973                           opt subtitle "HI-TECH Software Omniscient Code Generator (Lite mode) build 49521"
  1974                           
  1975  006A' C01A' F000'        	movff	(main@spi),(c:?_tc_init)
  1976  006E' 6E00'              	movwf	(??_main+0+0)&0ffh,c
  1977  0070' 0E01               	movlw	low(01h)
  1978  0072' 6E01'              	movwf	(0+((c:?_tc_init)+01h)),c
  1979  0074' 5000'              	movf	(??_main+0+0)&0ffh,c,w
  1980  0076' EC00' F000'        	call	_tc_init	;wreg free
  1981  007A' C000' F009'        	movff	0+?_tc_init,(main@tcpl1)
  1982  007E' C001' F00A'        	movff	1+?_tc_init,(main@tcpl1+1)
  1983  0082' C002' F00B'        	movff	2+?_tc_init,(main@tcpl1+2)
  1984  0086' C003' F00C'        	movff	3+?_tc_init,(main@tcpl1+3)
  1985                           opt subtitle "HI-TECH Software Omniscient Code Generator (Lite mode) build 49521"
  1986                           
  1987  008A'                    l2183:
  1988                           opt subtitle "HI-TECH Software Omniscient Code Generator (Lite mode) build 49521"
  1989  008A' C01A' F000'        	movff	(main@spi),(c:?_tc_init)
  1990  008E' 6E00'              	movwf	(??_main+0+0)&0ffh,c
  1991  0090' 0E02               	movlw	low(02h)
  1992  0092' 6E01'              	movwf	(0+((c:?_tc_init)+01h)),c
  1993  0094' 5000'              	movf	(??_main+0+0)&0ffh,c,w
  1994  0096' EC00' F000'        	call	_tc_init	;wreg free
  1995  009A' C000' F00D'        	movff	0+?_tc_init,(main@tcpl2)
  1996  009E' C001' F00E'        	movff	1+?_tc_init,(main@tcpl2+1)
  1997  00A2' C002' F00F'        	movff	2+?_tc_init,(main@tcpl2+2)
  1998  00A6' C003' F010'        	movff	3+?_tc_init,(main@tcpl2+3)
  1999                           opt subtitle "HI-TECH Software Omniscient Code Generator (Lite mode) build 49521"
  2000                           
  2001  00AA'                    l2185:
  2002                           opt subtitle "HI-TECH Software Omniscient Code Generator (Lite mode) build 49521"
  2003  00AA' 0100               	movlb	0	; () banked
  2004  00AC' 0E00'              	movlw	high(main@pidcontrol1)
  2005  00AE' 6E31'              	movwf	((c:?_pid_create+1)),c
  2006  00B0' 0100               	movlb	0	; () banked
  2007  00B2' 0E00'              	movlw	low(main@pidcontrol1)
  2008  00B4' 6E30'              	movwf	((c:?_pid_create)),c
  2009  00B6' 0100               	movlb	0	; () banked
  2010  00B8' 0E00'              	movlw	high(main@input1)
  2011  00BA' 6E33'              	movwf	(1+((c:?_pid_create)+02h)),c
  2012  00BC' 0100               	movlb	0	; () banked
  2013  00BE' 0E00'              	movlw	low(main@input1)
  2014  00C0' 6E32'              	movwf	(0+((c:?_pid_create)+02h)),c
  2015  00C2' 0100               	movlb	0	; () banked
  2016  00C4' 0E00'              	movlw	high(main@output)
  2017  00C6' 6E35'              	movwf	(1+((c:?_pid_create)+04h)),c
  2018  00C8' 0100               	movlb	0	; () banked
  2019  00CA' 0E00'              	movlw	low(main@output)
  2020  00CC' 6E34'              	movwf	(0+((c:?_pid_create)+04h)),c
  2021  00CE' 0100               	movlb	0	; () banked
  2022  00D0' 0E00'              	movlw	high(main@setpoint)
  2023  00D2' 6E37'              	movwf	(1+((c:?_pid_create)+06h)),c
  2024  00D4' 0100               	movlb	0	; () banked
  2025  00D6' 0E00'              	movlw	low(main@setpoint)
  2026  00D8' 6E36'              	movwf	(0+((c:?_pid_create)+06h)),c
  2027  00DA' 0E00               	movlw	low(float24(5.0000000000000000))
  2028  00DC' 6E38'              	movwf	(0+((c:?_pid_create)+08h)),c
  2029  00DE' 0EA0               	movlw	high(float24(5.0000000000000000))
  2030  00E0' 6E39'              	movwf	(1+((c:?_pid_create)+08h)),c
  2031  00E2' 0E40               	movlw	low highword(float24(5.0000000000000000))
  2032  00E4' 6E3A'              	movwf	(2+((c:?_pid_create)+08h)),c
  2033                           opt subtitle "HI-TECH Software Omniscient Code Generator (Lite mode) build 49521"
  2034  00E6' 0E00               	movlw	low(float24(1.0000000000000000))
  2035  00E8' 6E3B'              	movwf	(0+((c:?_pid_create)+0Bh)),c
  2036  00EA' 0E80               	movlw	high(float24(1.0000000000000000))
  2037  00EC' 6E3C'              	movwf	(1+((c:?_pid_create)+0Bh)),c
  2038  00EE' 0E3F               	movlw	low highword(float24(1.0000000000000000))
  2039  00F0' 6E3D'              	movwf	(2+((c:?_pid_create)+0Bh)),c
  2040                           opt subtitle "HI-TECH Software Omniscient Code Generator (Lite mode) build 49521"
  2041  00F2' 0E00               	movlw	low(float24(3.0000000000000000))
  2042  00F4' 6E3E'              	movwf	(0+((c:?_pid_create)+0Eh)),c
  2043  00F6' 0E40               	movlw	high(float24(3.0000000000000000))
  2044  00F8' 6E3F'              	movwf	(1+((c:?_pid_create)+0Eh)),c
  2045  00FA' 0E40               	movlw	low highword(float24(3.0000000000000000))
  2046  00FC' 6E40'              	movwf	(2+((c:?_pid_create)+0Eh)),c
  2047                           opt subtitle "HI-TECH Software Omniscient Code Generator (Lite mode) build 49521"
  2048  00FE' EC00' F000'        	call	_pid_create	;wreg free
  2049  0102' C030' F01B'        	movff	0+?_pid_create,(main@pid1)
  2050  0106' C031' F01C'        	movff	1+?_pid_create,(main@pid1+1)
  2051                           opt subtitle "HI-TECH Software Omniscient Code Generator (Lite mode) build 49521"
  2052                           
  2053  010A'                    l2187:
  2054                           opt subtitle "HI-TECH Software Omniscient Code Generator (Lite mode) build 49521"
  2055  010A' C01B' F009'        	movff	(main@pid1),(c:?_pid_limits)
  2056  010E' C01C' F00A'        	movff	(main@pid1+1),(c:?_pid_limits+1)
  2057  0112' 0E00               	movlw	low(float24(0.0000000000000000))
  2058  0114' 6E0B'              	movwf	(0+((c:?_pid_limits)+02h)),c
  2059  0116' 0E00               	movlw	high(float24(0.0000000000000000))
  2060  0118' 6E0C'              	movwf	(1+((c:?_pid_limits)+02h)),c
  2061  011A' 0E00               	movlw	low highword(float24(0.0000000000000000))
  2062  011C' 6E0D'              	movwf	(2+((c:?_pid_limits)+02h)),c
  2063                           opt subtitle "HI-TECH Software Omniscient Code Generator (Lite mode) build 49521"
  2064  011E' 0E00               	movlw	low(float24(255.00000000000000))
  2065  0120' 6E0E'              	movwf	(0+((c:?_pid_limits)+05h)),c
  2066  0122' 0E7F               	movlw	high(float24(255.00000000000000))
  2067  0124' 6E0F'              	movwf	(1+((c:?_pid_limits)+05h)),c
  2068  0126' 0E43               	movlw	low highword(float24(255.00000000000000))
  2069  0128' 6E10'              	movwf	(2+((c:?_pid_limits)+05h)),c
  2070                           opt subtitle "HI-TECH Software Omniscient Code Generator (Lite mode) build 49521"
  2071  012A' EC00' F000'        	call	_pid_limits	;wreg free
  2072                           opt subtitle "HI-TECH Software Omniscient Code Generator (Lite mode) build 49521"
  2073                           
  2074  012E'                    l2189:
  2075                           opt subtitle "HI-TECH Software Omniscient Code Generator (Lite mode) build 49521"
  2076  012E' C01B' F009'        	movff	(main@pid1),(c:?_pid_auto)
  2077  0132' C01C' F00A'        	movff	(main@pid1+1),(c:?_pid_auto+1)
  2078  0136' EC00' F000'        	call	_pid_auto	;wreg free
  2079                           opt subtitle "HI-TECH Software Omniscient Code Generator (Lite mode) build 49521"
  2080                           
  2081  013A'                    l2191:
  2082                           opt subtitle "HI-TECH Software Omniscient Code Generator (Lite mode) build 49521"
  2083  013A' 0E00               	movlw	low(float24(100.00000000000000))
  2084  013C' 0100               	movlb	0	; () banked
  2085  013E' 0100               	movlb	0	; () banked
  2086  0140' 6F00'              	movwf	((main@setpoint))&0ffh
  2087  0142' 0EC8               	movlw	high(float24(100.00000000000000))
  2088  0144' 0100               	movlb	0	; () banked
  2089  0146' 0100               	movlb	0	; () banked
  2090  0148' 6F00'              	movwf	((main@setpoint+1))&0ffh
  2091  014A' 0E42               	movlw	low highword(float24(100.00000000000000))
  2092  014C' 0100               	movlb	0	; () banked
  2093  014E' 0100               	movlb	0	; () banked
  2094  0150' 6F00'              	movwf	((main@setpoint+2))&0ffh
  2095                           opt subtitle "HI-TECH Software Omniscient Code Generator (Lite mode) build 49521"
  2096  0152' D000               	goto	l2193
  2097                           opt subtitle "HI-TECH Software Omniscient Code Generator (Lite mode) build 49521"
  2098                           
  2099                           opt pagewidth 120
  2100  0154'                    l17:; BSR set to: 0
  2101                           opt subtitle "HI-TECH Software Omniscient Code Generator (Lite mode) build 49521"
  2102                           
  2103                           opt pagewidth 120
  2104  0154'                    l2193:
  2105                           opt subtitle "HI-TECH Software Omniscient Code Generator (Lite mode) build 49521"
  2106  0154' 0100               	movlb	0	; () banked
  2107  0156' C005' F055'        	movff	(main@lastrun),??_main+0+0
  2108  015A' 0100               	movlb	0	; () banked
  2109  015C' C006' F056'        	movff	(main@lastrun+1),??_main+0+0+1
  2110  0160' 0100               	movlb	0	; () banked
  2111  0162' C007' F057'        	movff	(main@lastrun+2),??_main+0+0+2
  2112  0166' 0100               	movlb	0	; () banked
  2113  0168' C008' F058'        	movff	(main@lastrun+3),??_main+0+0+3
  2114  016C' 1E55'              	comf	(??_main+0+0),c
  2115  016E' 1E56'              	comf	(??_main+0+1),c
  2116  0170' 1E57'              	comf	(??_main+0+2),c
  2117  0172' 1E58'              	comf	(??_main+0+3),c
  2118  0174' 2A55'              	incf	(??_main+0+0),c
  2119  0176' 0E00               	movlw	0
  2120  0178' 2256'              	addwfc	(??_main+0+1),c
  2121  017A' 2257'              	addwfc	(??_main+0+2),c
  2122  017C' 2258'              	addwfc	(??_main+0+3),c
  2123  017E' EC00' F000'        	call	_tick_get	;wreg free
  2124  0182' 5055'              	movf	(??_main+0+0),c,w
  2125  0184' 2400'              	addwf	(0+?_tick_get),c,w
  2126  0186' 6E00'              	movwf	(??_main+4+0)&0ffh,c
  2127  0188' 5056'              	movf	(??_main+0+1),c,w
  2128  018A' 2001'              	addwfc	(1+?_tick_get),c,w
  2129  018C' 6E00'              	movwf	1+(??_main+4+0)&0ffh,c
  2130                           opt subtitle "HI-TECH Software Omniscient Code Generator (Lite mode) build 49521"
  2131  018E' 5057'              	movf	(??_main+0+2),c,w
  2132  0190' 2002'              	addwfc	(2+?_tick_get),c,w
  2133  0192' 6E00'              	movwf	2+(??_main+4+0)&0ffh,c
  2134                           opt subtitle "HI-TECH Software Omniscient Code Generator (Lite mode) build 49521"
  2135  0194' 5058'              	movf	(??_main+0+3),c,w
  2136  0196' 2003'              	addwfc	(3+?_tick_get),c,w
  2137  0198' 6E00'              	movwf	3+(??_main+4+0)&0ffh,c
  2138  019A' 0E1B               	movlw	low(0B71Bh)
  2139  019C' 5C59'              	subwf	(??_main+4+0),c,w
  2140  019E' 0EB7               	movlw	high(0B71Bh)
  2141  01A0' 585A'              	subwfb	(??_main+4+1),c,w
  2142  01A2' 0E00               	movlw	low highword(0B71Bh)
  2143  01A4' 585B'              	subwfb	(??_main+4+2),c,w
  2144  01A6' 0E00               	movlw	high highword(0B71Bh)
  2145  01A8' 585C'              	subwfb	(??_main+4+3),c,w
  2146  01AA' A0D8               	btfss	status,0
  2147  01AC' D001               	goto	u1381
  2148  01AE' D001               	goto	u1380
  2149  01B0'                    u1381:
  2150  01B0' D7D1               	goto	l2193
  2151  01B2'                    u1380:
  2152                           opt subtitle "HI-TECH Software Omniscient Code Generator (Lite mode) build 49521"
  2153                           
  2154  01B2'                    l2195:
  2155                           opt subtitle "HI-TECH Software Omniscient Code Generator (Lite mode) build 49521"
  2156  01B2' C009' F000'        	movff	(main@tcpl1),(c:?_tc_read)
  2157  01B6' C00A' F001'        	movff	(main@tcpl1+1),(c:?_tc_read+1)
  2158  01BA' C00B' F002'        	movff	(main@tcpl1+2),(c:?_tc_read+2)
  2159  01BE' C00C' F003'        	movff	(main@tcpl1+3),(c:?_tc_read+3)
  2160  01C2' EC00' F000'        	call	_tc_read	;wreg free
  2161  01C6' C000' F008'        	movff	0+?_tc_read,(c:?___awtoft)
  2162  01CA' C001' F009'        	movff	1+?_tc_read,(c:?___awtoft+1)
  2163  01CE' EC00' F000'        	call	___awtoft	;wreg free
  2164  01D2' C008' F014'        	movff	0+?___awtoft,(main@input1)
  2165  01D6' C009' F015'        	movff	1+?___awtoft,(main@input1+1)
  2166  01DA' C00A' F016'        	movff	2+?___awtoft,(main@input1+2)
  2167                           opt subtitle "HI-TECH Software Omniscient Code Generator (Lite mode) build 49521"
  2168                           
  2169  01DE' C00D' F000'        	movff	(main@tcpl2),(c:?_tc_read)
  2170  01E2' C00E' F001'        	movff	(main@tcpl2+1),(c:?_tc_read+1)
  2171  01E6' C00F' F002'        	movff	(main@tcpl2+2),(c:?_tc_read+2)
  2172  01EA' C010' F003'        	movff	(main@tcpl2+3),(c:?_tc_read+3)
  2173  01EE' EC00' F000'        	call	_tc_read	;wreg free
  2174  01F2' C000' F008'        	movff	0+?_tc_read,(c:?___awtoft)
  2175  01F6' C001' F009'        	movff	1+?_tc_read,(c:?___awtoft+1)
  2176  01FA' EC00' F000'        	call	___awtoft	;wreg free
  2177  01FE' C008' F000'        	movff	0+?___awtoft,(main@input2)
  2178  0202' C009' F001'        	movff	1+?___awtoft,(main@input2+1)
  2179  0206' C00A' F002'        	movff	2+?___awtoft,(main@input2+2)
  2180                           opt subtitle "HI-TECH Software Omniscient Code Generator (Lite mode) build 49521"
  2181                           
  2182  020A'                    l2197:
  2183                           opt subtitle "HI-TECH Software Omniscient Code Generator (Lite mode) build 49521"
  2184  020A' C01B' F02F'        	movff	(main@pid1),(c:?_pid_compute)
  2185  020E' C01C' F030'        	movff	(main@pid1+1),(c:?_pid_compute+1)
  2186  0212' EC00' F000'        	call	_pid_compute	;wreg free
  2187  0216' D79E               	goto	l2193
  2188                           opt subtitle "HI-TECH Software Omniscient Code Generator (Lite mode) build 49521"
  2189                           
  2190  0218'                    l18:
  2191                           opt subtitle "HI-TECH Software Omniscient Code Generator (Lite mode) build 49521"
  2192                           
  2193                           opt pagewidth 120
  2194  0218' D79D               	goto	l2193
  2195                           opt subtitle "HI-TECH Software Omniscient Code Generator (Lite mode) build 49521"
  2196  021A'                    l19:
  2197                           opt subtitle "HI-TECH Software Omniscient Code Generator (Lite mode) build 49521"
  2198                           
  2199  021A'                    l20:
  2200                           opt subtitle "HI-TECH Software Omniscient Code Generator (Lite mode) build 49521"
  2201  021A' EF00' F000'        	goto	start
  2202                           opt subtitle "HI-TECH Software Omniscient Code Generator (Lite mode) build 49521"
  2203                           
  2204  021E'                    	__end_of_main:
  2205                           opt subtitle "HI-TECH Software Omniscient Code Generator (Lite mode) build 49521"
  2206                           
  2207                           opt pagewidth 120
  2208                           
  2209                           	opt lm
  2210                           
  2211                           	processor	18F2550
  2212                           porta	equ	0F80h
  2213                           portb	equ	0F81h
  2214                           portc	equ	0F82h
  2215                           portd	equ	0F83h
  2216                           porte	equ	0F84h
  2217                           lata	equ	0F89h
  2218                           latb	equ	0F8Ah
  2219                           latc	equ	0F8Bh
  2220                           latd	equ	0F8Ch
  2221                           late	equ	0F8Dh
  2222                           trisa	equ	0F92h
  2223                           trisb	equ	0F93h
  2224                           trisc	equ	0F94h
  2225                           trisd	equ	0F95h
  2226                           trise	equ	0F96h
  2227                           pie1	equ	0F9Dh
  2228                           pir1	equ	0F9Eh
  2229                           ipr1	equ	0F9Fh
  2230                           pie2	equ	0FA0h
  2231                           pir2	equ	0FA1h
  2232                           ipr2	equ	0FA2h
  2233                           t3con	equ	0FB1h
  2234                           tmr3l	equ	0FB2h
  2235                           tmr3h	equ	0FB3h
  2236                           ccp1con	equ	0FBDh
  2237                           ccpr1l	equ	0FBEh
  2238                           ccpr1h	equ	0FBFh
  2239                           adcon1	equ	0FC1h
  2240                           adcon0	equ	0FC2h
  2241                           adresl	equ	0FC3h
  2242                           adresh	equ	0FC4h
  2243                           sspcon2	equ	0FC5h
  2244                           sspcon1	equ	0FC6h
  2245                           sspstat	equ	0FC7h
  2246                           sspadd	equ	0FC8h
  2247                           sspbuf	equ	0FC9h
  2248                           t2con	equ	0FCAh
  2249                           pr2	equ	0FCBh
  2250                           tmr2	equ	0FCCh
  2251                           t1con	equ	0FCDh
  2252                           tmr1l	equ	0FCEh
  2253  0000'                    __ptext1:
  2254                           opt subtitle "HI-TECH Software Omniscient Code Generator (Lite mode) build 49521"
  2255                           
  2256                           opt pagewidth 120
  2257                           
  2258  0000                     	__size_of_pid_create	equ	__end_of_pid_create-_pid_create
  2259                           opt subtitle "HI-TECH Software Omniscient Code Generator (Lite mode) build 49521"
  2260  0000'                    _pid_create:
  2261                           opt subtitle "HI-TECH Software Omniscient Code Generator (Lite mode) build 49521"
  2262                           
  2263                           opt pagewidth 120
  2264  0000'                    l2157:
  2265                           opt subtitle "HI-TECH Software Omniscient Code Generator (Lite mode) build 49521"
  2266  0000' C030' FFD9         	movff	(c:pid_create@pid),fsr2l
  2267  0004' C031' FFDA         	movff	(c:pid_create@pid+1),fsr2h
  2268  0008' C032' FFDE         	movff	(c:pid_create@in),postinc2
  2269  000C' C033' FFDD         	movff	(c:pid_create@in+1),postdec2
  2270                           opt subtitle "HI-TECH Software Omniscient Code Generator (Lite mode) build 49521"
  2271                           
  2272  0010'                    l2159:
  2273                           opt subtitle "HI-TECH Software Omniscient Code Generator (Lite mode) build 49521"
  2274  0010' EE20 F002          	lfsr	2,02h
  2275  0014' 5030'              	movf	((c:pid_create@pid)),c,w
  2276  0016' 26D9               	addwf	fsr2l
  2277  0018' 5031'              	movf	((c:pid_create@pid+1)),c,w
  2278  001A' 22DA               	addwfc	fsr2h
  2279  001C' C034' FFDE         	movff	(c:pid_create@out),postinc2
  2280  0020' C035' FFDD         	movff	(c:pid_create@out+1),postdec2
  2281                           opt subtitle "HI-TECH Software Omniscient Code Generator (Lite mode) build 49521"
  2282                           
  2283  0024'                    l2161:
  2284                           opt subtitle "HI-TECH Software Omniscient Code Generator (Lite mode) build 49521"
  2285  0024' EE20 F004          	lfsr	2,04h
  2286  0028' 5030'              	movf	((c:pid_create@pid)),c,w
  2287  002A' 26D9               	addwf	fsr2l
  2288  002C' 5031'              	movf	((c:pid_create@pid+1)),c,w
  2289  002E' 22DA               	addwfc	fsr2h
  2290  0030' C036' FFDE         	movff	(c:pid_create@set),postinc2
  2291  0034' C037' FFDD         	movff	(c:pid_create@set+1),postdec2
  2292                           opt subtitle "HI-TECH Software Omniscient Code Generator (Lite mode) build 49521"
  2293                           
  2294  0038'                    l2163:
  2295                           opt subtitle "HI-TECH Software Omniscient Code Generator (Lite mode) build 49521"
  2296  0038' EE20 F023          	lfsr	2,023h
  2297  003C' 5030'              	movf	((c:pid_create@pid)),c,w
  2298  003E' 26D9               	addwf	fsr2l
  2299  0040' 5031'              	movf	((c:pid_create@pid+1)),c,w
  2300  0042' 22DA               	addwfc	fsr2h
  2301  0044' 0E00               	movlw	low(0)
  2302  0046' 6EDF               	movwf	indf2
  2303                           opt subtitle "HI-TECH Software Omniscient Code Generator (Lite mode) build 49521"
  2304                           
  2305  0048'                    l2165:
  2306                           opt subtitle "HI-TECH Software Omniscient Code Generator (Lite mode) build 49521"
  2307  0048' C030' F009'        	movff	(c:pid_create@pid),(c:?_pid_limits)
  2308  004C' C031' F00A'        	movff	(c:pid_create@pid+1),(c:?_pid_limits+1)
  2309  0050' 0E00               	movlw	low(float24(0.0000000000000000))
  2310  0052' 6E0B'              	movwf	(0+((c:?_pid_limits)+02h)),c
  2311  0054' 0E00               	movlw	high(float24(0.0000000000000000))
  2312  0056' 6E0C'              	movwf	(1+((c:?_pid_limits)+02h)),c
  2313  0058' 0E00               	movlw	low highword(float24(0.0000000000000000))
  2314  005A' 6E0D'              	movwf	(2+((c:?_pid_limits)+02h)),c
  2315                           opt subtitle "HI-TECH Software Omniscient Code Generator (Lite mode) build 49521"
  2316  005C' 0E00               	movlw	low(float24(255.00000000000000))
  2317  005E' 6E0E'              	movwf	(0+((c:?_pid_limits)+05h)),c
  2318  0060' 0E7F               	movlw	high(float24(255.00000000000000))
  2319  0062' 6E0F'              	movwf	(1+((c:?_pid_limits)+05h)),c
  2320  0064' 0E43               	movlw	low highword(float24(255.00000000000000))
  2321  0066' 6E10'              	movwf	(2+((c:?_pid_limits)+05h)),c
  2322                           opt subtitle "HI-TECH Software Omniscient Code Generator (Lite mode) build 49521"
  2323  0068' EC00' F000'        	call	_pid_limits	;wreg free
  2324                           opt subtitle "HI-TECH Software Omniscient Code Generator (Lite mode) build 49521"
  2325                           
  2326  006C'                    l2167:
  2327                           opt subtitle "HI-TECH Software Omniscient Code Generator (Lite mode) build 49521"
  2328  006C' EE20 F01F          	lfsr	2,01Fh
  2329  0070' 5030'              	movf	((c:pid_create@pid)),c,w
  2330  0072' 26D9               	addwf	fsr2l
  2331  0074' 5031'              	movf	((c:pid_create@pid+1)),c,w
  2332  0076' 22DA               	addwfc	fsr2h
  2333  0078' 0EF8               	movlw	low(011F8h)
  2334  007A' 6EDE               	movwf	postinc2
  2335  007C' 0E11               	movlw	high(011F8h)
  2336  007E' 6EDE               	movwf	postinc2
  2337  0080' 0E00               	movlw	low highword(011F8h)
  2338  0082' 6EDE               	movwf	postinc2
  2339  0084' 0E00               	movlw	high highword(011F8h)
  2340  0086' 6EDD               	movwf	postdec2
  2341  0088' 52DD               	movf	postdec2
  2342  008A' 52DD               	movf	postdec2
  2343                           opt subtitle "HI-TECH Software Omniscient Code Generator (Lite mode) build 49521"
  2344                           
  2345  008C'                    l2169:
  2346                           opt subtitle "HI-TECH Software Omniscient Code Generator (Lite mode) build 49521"
  2347  008C' C030' F00B'        	movff	(c:pid_create@pid),(c:?_pid_direction)
  2348  0090' C031' F00C'        	movff	(c:pid_create@pid+1),(c:?_pid_direction+1)
  2349  0094' 6E00'              	movwf	(??_pid_create+0+0)&0ffh,c
  2350  0096' 0E00               	movlw	low(0)
  2351  0098' 6E0D'              	movwf	(0+((c:?_pid_direction)+02h)),c
  2352  009A' 5000'              	movf	(??_pid_create+0+0)&0ffh,c,w
  2353  009C' EC00' F000'        	call	_pid_direction	;wreg free
  2354                           opt subtitle "HI-TECH Software Omniscient Code Generator (Lite mode) build 49521"
  2355                           
  2356  00A0'                    l2171:
  2357                           opt subtitle "HI-TECH Software Omniscient Code Generator (Lite mode) build 49521"
  2358  00A0' C030' F022'        	movff	(c:pid_create@pid),(c:?_pid_tune)
  2359  00A4' C031' F023'        	movff	(c:pid_create@pid+1),(c:?_pid_tune+1)
  2360  00A8' C038' F024'        	movff	(c:pid_create@kp),0+((c:?_pid_tune)+02h)
  2361  00AC' C039' F025'        	movff	(c:pid_create@kp+1),1+((c:?_pid_tune)+02h)
  2362  00B0' C03A' F026'        	movff	(c:pid_create@kp+2),2+((c:?_pid_tune)+02h)
  2363  00B4' C03B' F027'        	movff	(c:pid_create@ki),0+((c:?_pid_tune)+05h)
  2364  00B8' C03C' F028'        	movff	(c:pid_create@ki+1),1+((c:?_pid_tune)+05h)
  2365  00BC' C03D' F029'        	movff	(c:pid_create@ki+2),2+((c:?_pid_tune)+05h)
  2366  00C0' C03E' F02A'        	movff	(c:pid_create@kd),0+((c:?_pid_tune)+08h)
  2367  00C4' C03F' F02B'        	movff	(c:pid_create@kd+1),1+((c:?_pid_tune)+08h)
  2368  00C8' C040' F02C'        	movff	(c:pid_create@kd+2),2+((c:?_pid_tune)+08h)
  2369  00CC' EC00' F000'        	call	_pid_tune	;wreg free
  2370                           opt subtitle "HI-TECH Software Omniscient Code Generator (Lite mode) build 49521"
  2371                           
  2372  00D0'                    l2173:
  2373                           opt subtitle "HI-TECH Software Omniscient Code Generator (Lite mode) build 49521"
  2374  00D0' EE20 F01F          	lfsr	2,01Fh
  2375  00D4' 5030'              	movf	((c:pid_create@pid)),c,w
  2376  00D6' 26D9               	addwf	fsr2l
  2377  00D8' 5031'              	movf	((c:pid_create@pid+1)),c,w
  2378  00DA' 22DA               	addwfc	fsr2h
  2379  00DC' CFDE F041'         	movff	postinc2,??_pid_create+0+0
  2380  00E0' CFDE F042'         	movff	postinc2,??_pid_create+0+0+1
  2381  00E4' CFDE F043'         	movff	postinc2,??_pid_create+0+0+2
  2382  00E8' CFDE F044'         	movff	postinc2,??_pid_create+0+0+3
  2383  00EC' 1E41'              	comf	(??_pid_create+0+0),c
  2384  00EE' 1E42'              	comf	(??_pid_create+0+1),c
  2385  00F0' 1E43'              	comf	(??_pid_create+0+2),c
  2386  00F2' 1E44'              	comf	(??_pid_create+0+3),c
  2387  00F4' 2A41'              	incf	(??_pid_create+0+0),c
  2388  00F6' 0E00               	movlw	0
  2389  00F8' 2242'              	addwfc	(??_pid_create+0+1),c
  2390  00FA' 2243'              	addwfc	(??_pid_create+0+2),c
  2391  00FC' 2244'              	addwfc	(??_pid_create+0+3),c
  2392  00FE' EC00' F000'        	call	_tick_get	;wreg free
  2393  0102' 5041'              	movf	(??_pid_create+0+0),c,w
  2394  0104' 2400'              	addwf	(0+?_tick_get),c,w
  2395  0106' 6E00'              	movwf	(??_pid_create+4+0)&0ffh,c
  2396  0108' 5042'              	movf	(??_pid_create+0+1),c,w
  2397  010A' 2001'              	addwfc	(1+?_tick_get),c,w
  2398  010C' 6E00'              	movwf	1+(??_pid_create+4+0)&0ffh,c
  2399                           opt subtitle "HI-TECH Software Omniscient Code Generator (Lite mode) build 49521"
  2400  010E' 5043'              	movf	(??_pid_create+0+2),c,w
  2401  0110' 2002'              	addwfc	(2+?_tick_get),c,w
  2402  0112' 6E00'              	movwf	2+(??_pid_create+4+0)&0ffh,c
  2403                           opt subtitle "HI-TECH Software Omniscient Code Generator (Lite mode) build 49521"
  2404  0114' 5044'              	movf	(??_pid_create+0+3),c,w
  2405  0116' 2003'              	addwfc	(3+?_tick_get),c,w
  2406  0118' 6E00'              	movwf	3+(??_pid_create+4+0)&0ffh,c
  2407  011A' EE20 F01B          	lfsr	2,01Bh
  2408  011E' 5030'              	movf	((c:pid_create@pid)),c,w
  2409  0120' 26D9               	addwf	fsr2l
  2410  0122' 5031'              	movf	((c:pid_create@pid+1)),c,w
  2411  0124' 22DA               	addwfc	fsr2h
  2412  0126' C045' FFDE         	movff	??_pid_create+4+0,postinc2
  2413  012A' C046' FFDE         	movff	??_pid_create+4+1,postinc2
  2414  012E' C047' FFDE         	movff	??_pid_create+4+2,postinc2
  2415  0132' C048' FFDD         	movff	??_pid_create+4+3,postdec2
  2416  0136' 06D9               	decf	fsr2
  2417  0138' 06D9               	decf	fsr2
  2418                           opt subtitle "HI-TECH Software Omniscient Code Generator (Lite mode) build 49521"
  2419                           
  2420  013A'                    l2175:
  2421                           opt subtitle "HI-TECH Software Omniscient Code Generator (Lite mode) build 49521"
  2422  013A' C030' F030'        	movff	(c:pid_create@pid),(c:?_pid_create)
  2423  013E' C031' F031'        	movff	(c:pid_create@pid+1),(c:?_pid_create+1)
  2424  0142' D000               	goto	l62
  2425                           opt subtitle "HI-TECH Software Omniscient Code Generator (Lite mode) build 49521"
  2426  0144'                    l2177:
  2427                           opt subtitle "HI-TECH Software Omniscient Code Generator (Lite mode) build 49521"
  2428                           
  2429  0144'                    l62:
  2430  0144' 0012               	return
  2431                           opt subtitle "HI-TECH Software Omniscient Code Generator (Lite mode) build 49521"
  2432                           
  2433  0146'                    	__end_of_pid_create:
  2434                           opt subtitle "HI-TECH Software Omniscient Code Generator (Lite mode) build 49521"
  2435                           
  2436                           opt pagewidth 120
  2437                           
  2438                           	opt lm
  2439                           
  2440                           	processor	18F2550
  2441                           porta	equ	0F80h
  2442                           portb	equ	0F81h
  2443                           portc	equ	0F82h
  2444                           portd	equ	0F83h
  2445                           porte	equ	0F84h
  2446                           lata	equ	0F89h
  2447                           latb	equ	0F8Ah
  2448                           latc	equ	0F8Bh
  2449                           latd	equ	0F8Ch
  2450                           late	equ	0F8Dh
  2451                           trisa	equ	0F92h
  2452                           trisb	equ	0F93h
  2453                           trisc	equ	0F94h
  2454                           trisd	equ	0F95h
  2455                           trise	equ	0F96h
  2456                           pie1	equ	0F9Dh
  2457                           pir1	equ	0F9Eh
  2458                           ipr1	equ	0F9Fh
  2459                           pie2	equ	0FA0h
  2460                           pir2	equ	0FA1h
  2461                           ipr2	equ	0FA2h
  2462                           t3con	equ	0FB1h
  2463                           tmr3l	equ	0FB2h
  2464                           tmr3h	equ	0FB3h
  2465                           ccp1con	equ	0FBDh
  2466                           ccpr1l	equ	0FBEh
  2467                           ccpr1h	equ	0FBFh
  2468                           adcon1	equ	0FC1h
  2469                           adcon0	equ	0FC2h
  2470                           adresl	equ	0FC3h
  2471                           adresh	equ	0FC4h
  2472  0000'                    __ptext2:
  2473                           opt subtitle "HI-TECH Software Omniscient Code Generator (Lite mode) build 49521"
  2474                           
  2475                           opt pagewidth 120
  2476                           
  2477  0000                     	__size_of_pid_limits	equ	__end_of_pid_limits-_pid_limits
  2478                           opt subtitle "HI-TECH Software Omniscient Code Generator (Lite mode) build 49521"
  2479  0000'                    _pid_limits:
  2480                           opt subtitle "HI-TECH Software Omniscient Code Generator (Lite mode) build 49521"
  2481                           
  2482                           opt pagewidth 120
  2483  0000'                    l1861:
  2484                           opt subtitle "HI-TECH Software Omniscient Code Generator (Lite mode) build 49521"
  2485  0000' C00B' F000'        	movff	(c:pid_limits@min),(c:?___ftge)
  2486  0004' C00C' F001'        	movff	(c:pid_limits@min+1),(c:?___ftge+1)
  2487  0008' C00D' F002'        	movff	(c:pid_limits@min+2),(c:?___ftge+2)
  2488  000C' C00E' F003'        	movff	(c:pid_limits@max),0+((c:?___ftge)+03h)
  2489  0010' C00F' F004'        	movff	(c:pid_limits@max+1),1+((c:?___ftge)+03h)
  2490  0014' C010' F005'        	movff	(c:pid_limits@max+2),2+((c:?___ftge)+03h)
  2491  0018' EC00' F000'        	call	___ftge	;wreg free
  2492  001C' A0D8               	btfss	status,0
  2493  001E' D001               	goto	u831
  2494  0020' D001               	goto	u830
  2495  0022'                    u831:
  2496  0022' D002               	goto	l1865
  2497  0024'                    u830:
  2498  0024' D0D6               	goto	l88
  2499                           opt subtitle "HI-TECH Software Omniscient Code Generator (Lite mode) build 49521"
  2500  0026'                    l1863:
  2501  0026' D0D5               	goto	l88
  2502                           opt subtitle "HI-TECH Software Omniscient Code Generator (Lite mode) build 49521"
  2503  0028'                    l87:
  2504                           opt subtitle "HI-TECH Software Omniscient Code Generator (Lite mode) build 49521"
  2505                           
  2506  0028'                    l1865:
  2507                           opt subtitle "HI-TECH Software Omniscient Code Generator (Lite mode) build 49521"
  2508  0028' EE20 F00F          	lfsr	2,0Fh
  2509  002C' 5009'              	movf	((c:pid_limits@pid)),c,w
  2510  002E' 26D9               	addwf	fsr2l
  2511  0030' 500A'              	movf	((c:pid_limits@pid+1)),c,w
  2512  0032' 22DA               	addwfc	fsr2h
  2513  0034' C00B' FFDE         	movff	(c:pid_limits@min),postinc2
  2514  0038' C00C' FFDE         	movff	(c:pid_limits@min+1),postinc2
  2515  003C' C00D' FFDD         	movff	(c:pid_limits@min+2),postdec2
  2516                           opt subtitle "HI-TECH Software Omniscient Code Generator (Lite mode) build 49521"
  2517                           
  2518  0040' EE20 F012          	lfsr	2,012h
  2519  0044' 5009'              	movf	((c:pid_limits@pid)),c,w
  2520  0046' 26D9               	addwf	fsr2l
  2521  0048' 500A'              	movf	((c:pid_limits@pid+1)),c,w
  2522  004A' 22DA               	addwfc	fsr2h
  2523  004C' C00E' FFDE         	movff	(c:pid_limits@max),postinc2
  2524  0050' C00F' FFDE         	movff	(c:pid_limits@max+1),postinc2
  2525  0054' C010' FFDD         	movff	(c:pid_limits@max+2),postdec2
  2526                           opt subtitle "HI-TECH Software Omniscient Code Generator (Lite mode) build 49521"
  2527                           
  2528  0058' EE20 F023          	lfsr	2,023h
  2529  005C' 5009'              	movf	((c:pid_limits@pid)),c,w
  2530  005E' 26D9               	addwf	fsr2l
  2531  0060' 500A'              	movf	((c:pid_limits@pid+1)),c,w
  2532  0062' 22DA               	addwfc	fsr2h
  2533  0064' 50DF               	movf	indf2,w
  2534  0066' B4D8               	btfsc	status,2
  2535  0068' D001               	goto	u841
  2536  006A' D001               	goto	u840
  2537  006C'                    u841:
  2538  006C' D0B2               	goto	l88
  2539  006E'                    u840:
  2540                           opt subtitle "HI-TECH Software Omniscient Code Generator (Lite mode) build 49521"
  2541                           
  2542  006E'                    l1867:
  2543                           opt subtitle "HI-TECH Software Omniscient Code Generator (Lite mode) build 49521"
  2544  006E' EE20 F012          	lfsr	2,012h
  2545  0072' 5009'              	movf	((c:pid_limits@pid)),c,w
  2546  0074' 26D9               	addwf	fsr2l
  2547  0076' 500A'              	movf	((c:pid_limits@pid+1)),c,w
  2548  0078' 22DA               	addwfc	fsr2h
  2549  007A' CFDE F000'         	movff	postinc2,(c:?___ftge)
  2550  007E' CFDE F001'         	movff	postinc2,(c:?___ftge+1)
  2551  0082' CFDD F002'         	movff	postdec2,(c:?___ftge+2)
  2552  0086' EE20 F002          	lfsr	2,02h
  2553  008A' 5009'              	movf	((c:pid_limits@pid)),c,w
  2554  008C' 26D9               	addwf	fsr2l
  2555  008E' 500A'              	movf	((c:pid_limits@pid+1)),c,w
  2556  0090' 22DA               	addwfc	fsr2h
  2557  0092' CFDE F011'         	movff	postinc2,??_pid_limits+0+0
  2558  0096' CFDD F012'         	movff	postdec2,??_pid_limits+0+0+1
  2559  009A' C011' FFD9         	movff	??_pid_limits+0+0,fsr2l
  2560  009E' C012' FFDA         	movff	??_pid_limits+0+1,fsr2h
  2561  00A2' CFDE F003'         	movff	postinc2,0+((c:?___ftge)+03h)
  2562  00A6' CFDE F004'         	movff	postinc2,1+((c:?___ftge)+03h)
  2563  00AA' CFDD F005'         	movff	postdec2,2+((c:?___ftge)+03h)
  2564  00AE' EC00' F000'        	call	___ftge	;wreg free
  2565  00B2' B0D8               	btfsc	status,0
  2566  00B4' D001               	goto	u851
  2567  00B6' D001               	goto	u850
  2568  00B8'                    u851:
  2569  00B8' D002               	goto	l1871
  2570  00BA'                    u850:
  2571  00BA' D025               	goto	l1873
  2572                           opt subtitle "HI-TECH Software Omniscient Code Generator (Lite mode) build 49521"
  2573                           
  2574  00BC'                    l1869:
  2575  00BC' D024               	goto	l1873
  2576                           opt subtitle "HI-TECH Software Omniscient Code Generator (Lite mode) build 49521"
  2577                           
  2578  00BE'                    l90:
  2579                           opt subtitle "HI-TECH Software Omniscient Code Generator (Lite mode) build 49521"
  2580  00BE'                    l1871:
  2581                           opt subtitle "HI-TECH Software Omniscient Code Generator (Lite mode) build 49521"
  2582  00BE' EE20 F002          	lfsr	2,02h
  2583  00C2' 5009'              	movf	((c:pid_limits@pid)),c,w
  2584  00C4' 26D9               	addwf	fsr2l
  2585  00C6' 500A'              	movf	((c:pid_limits@pid+1)),c,w
  2586  00C8' 22DA               	addwfc	fsr2h
  2587  00CA' CFDE F011'         	movff	postinc2,??_pid_limits+0+0
  2588  00CE' CFDD F012'         	movff	postdec2,??_pid_limits+0+0+1
  2589  00D2' C011' FFD9         	movff	??_pid_limits+0+0,fsr2l
  2590  00D6' C012' FFDA         	movff	??_pid_limits+0+1,fsr2h
  2591  00DA' CFDE F000'         	movff	postinc2,(c:?___ftge)
  2592  00DE' CFDE F001'         	movff	postinc2,(c:?___ftge+1)
  2593  00E2' CFDD F002'         	movff	postdec2,(c:?___ftge+2)
  2594  00E6' EE20 F00F          	lfsr	2,0Fh
  2595  00EA' 5009'              	movf	((c:pid_limits@pid)),c,w
  2596  00EC' 26D9               	addwf	fsr2l
  2597  00EE' 500A'              	movf	((c:pid_limits@pid+1)),c,w
  2598  00F0' 22DA               	addwfc	fsr2h
  2599  00F2' CFDE F003'         	movff	postinc2,0+((c:?___ftge)+03h)
  2600  00F6' CFDE F004'         	movff	postinc2,1+((c:?___ftge)+03h)
  2601  00FA' CFDD F005'         	movff	postdec2,2+((c:?___ftge)+03h)
  2602  00FE' EC00' F000'        	call	___ftge	;wreg free
  2603  0102' D001               	goto	l1873
  2604                           opt subtitle "HI-TECH Software Omniscient Code Generator (Lite mode) build 49521"
  2605                           
  2606  0104'                    l92:
  2607  0104' D000               	goto	l1873
  2608                           opt subtitle "HI-TECH Software Omniscient Code Generator (Lite mode) build 49521"
  2609                           
  2610  0106'                    l91:
  2611                           opt subtitle "HI-TECH Software Omniscient Code Generator (Lite mode) build 49521"
  2612  0106'                    l1873:
  2613                           opt subtitle "HI-TECH Software Omniscient Code Generator (Lite mode) build 49521"
  2614  0106' EE20 F012          	lfsr	2,012h
  2615  010A' 5009'              	movf	((c:pid_limits@pid)),c,w
  2616  010C' 26D9               	addwf	fsr2l
  2617  010E' 500A'              	movf	((c:pid_limits@pid+1)),c,w
  2618  0110' 22DA               	addwfc	fsr2h
  2619  0112' CFDE F000'         	movff	postinc2,(c:?___ftge)
  2620  0116' CFDE F001'         	movff	postinc2,(c:?___ftge+1)
  2621  011A' CFDD F002'         	movff	postdec2,(c:?___ftge+2)
  2622  011E' EE20 F015          	lfsr	2,015h
  2623  0122' 5009'              	movf	((c:pid_limits@pid)),c,w
  2624  0124' 26D9               	addwf	fsr2l
  2625  0126' 500A'              	movf	((c:pid_limits@pid+1)),c,w
  2626  0128' 22DA               	addwfc	fsr2h
  2627  012A' CFDE F003'         	movff	postinc2,0+((c:?___ftge)+03h)
  2628  012E' CFDE F004'         	movff	postinc2,1+((c:?___ftge)+03h)
  2629  0132' CFDD F005'         	movff	postdec2,2+((c:?___ftge)+03h)
  2630  0136' EC00' F000'        	call	___ftge	;wreg free
  2631  013A' B0D8               	btfsc	status,0
  2632  013C' D001               	goto	u861
  2633  013E' D001               	goto	u860
  2634  0140'                    u861:
  2635  0140' D014               	goto	l1877
  2636  0142'                    u860:
  2637                           opt subtitle "HI-TECH Software Omniscient Code Generator (Lite mode) build 49521"
  2638                           
  2639  0142'                    l1875:
  2640                           opt subtitle "HI-TECH Software Omniscient Code Generator (Lite mode) build 49521"
  2641  0142' EE20 F012          	lfsr	2,012h
  2642  0146' 5009'              	movf	((c:pid_limits@pid)),c,w
  2643  0148' 26D9               	addwf	fsr2l
  2644  014A' 500A'              	movf	((c:pid_limits@pid+1)),c,w
  2645  014C' 22DA               	addwfc	fsr2h
  2646  014E' EE10 F015          	lfsr	1,015h
  2647  0152' 5009'              	movf	((c:pid_limits@pid)),c,w
  2648  0154' 26E1               	addwf	fsr1l
  2649  0156' 500A'              	movf	((c:pid_limits@pid+1)),c,w
  2650  0158' 22E2               	addwfc	fsr1h
  2651  015A' CFDE FFE6          	movff	postinc2,postinc1
  2652  015E' CFDE FFE6          	movff	postinc2,postinc1
  2653  0162' CFDE FFE5          	movff	postinc2,postdec1
  2654  0166' 52E5               	movf	postdec1
  2655  0168' D034               	goto	l88
  2656                           opt subtitle "HI-TECH Software Omniscient Code Generator (Lite mode) build 49521"
  2657                           
  2658  016A'                    l93:
  2659                           opt subtitle "HI-TECH Software Omniscient Code Generator (Lite mode) build 49521"
  2660  016A'                    l1877:
  2661                           opt subtitle "HI-TECH Software Omniscient Code Generator (Lite mode) build 49521"
  2662  016A' EE20 F015          	lfsr	2,015h
  2663  016E' 5009'              	movf	((c:pid_limits@pid)),c,w
  2664  0170' 26D9               	addwf	fsr2l
  2665  0172' 500A'              	movf	((c:pid_limits@pid+1)),c,w
  2666  0174' 22DA               	addwfc	fsr2h
  2667  0176' CFDE F000'         	movff	postinc2,(c:?___ftge)
  2668  017A' CFDE F001'         	movff	postinc2,(c:?___ftge+1)
  2669  017E' CFDD F002'         	movff	postdec2,(c:?___ftge+2)
  2670  0182' EE20 F00F          	lfsr	2,0Fh
  2671  0186' 5009'              	movf	((c:pid_limits@pid)),c,w
  2672  0188' 26D9               	addwf	fsr2l
  2673  018A' 500A'              	movf	((c:pid_limits@pid+1)),c,w
  2674  018C' 22DA               	addwfc	fsr2h
  2675  018E' CFDE F003'         	movff	postinc2,0+((c:?___ftge)+03h)
  2676  0192' CFDE F004'         	movff	postinc2,1+((c:?___ftge)+03h)
  2677  0196' CFDD F005'         	movff	postdec2,2+((c:?___ftge)+03h)
  2678  019A' EC00' F000'        	call	___ftge	;wreg free
  2679  019E' B0D8               	btfsc	status,0
  2680  01A0' D001               	goto	u871
  2681  01A2' D001               	goto	u870
  2682  01A4'                    u871:
  2683  01A4' D016               	goto	l88
  2684  01A6'                    u870:
  2685                           opt subtitle "HI-TECH Software Omniscient Code Generator (Lite mode) build 49521"
  2686                           
  2687  01A6'                    l1879:
  2688                           opt subtitle "HI-TECH Software Omniscient Code Generator (Lite mode) build 49521"
  2689  01A6' EE20 F00F          	lfsr	2,0Fh
  2690  01AA' 5009'              	movf	((c:pid_limits@pid)),c,w
  2691  01AC' 26D9               	addwf	fsr2l
  2692  01AE' 500A'              	movf	((c:pid_limits@pid+1)),c,w
  2693  01B0' 22DA               	addwfc	fsr2h
  2694  01B2' EE10 F015          	lfsr	1,015h
  2695  01B6' 5009'              	movf	((c:pid_limits@pid)),c,w
  2696  01B8' 26E1               	addwf	fsr1l
  2697  01BA' 500A'              	movf	((c:pid_limits@pid+1)),c,w
  2698  01BC' 22E2               	addwfc	fsr1h
  2699  01BE' CFDE FFE6          	movff	postinc2,postinc1
  2700  01C2' CFDE FFE6          	movff	postinc2,postinc1
  2701  01C6' CFDE FFE5          	movff	postinc2,postdec1
  2702  01CA' 52E5               	movf	postdec1
  2703  01CC' D002               	goto	l88
  2704                           opt subtitle "HI-TECH Software Omniscient Code Generator (Lite mode) build 49521"
  2705  01CE'                    l95:
  2706  01CE' D001               	goto	l88
  2707                           opt subtitle "HI-TECH Software Omniscient Code Generator (Lite mode) build 49521"
  2708                           
  2709  01D0'                    l94:
  2710  01D0' D000               	goto	l88
  2711                           opt subtitle "HI-TECH Software Omniscient Code Generator (Lite mode) build 49521"
  2712  01D2'                    l89:
  2713                           opt subtitle "HI-TECH Software Omniscient Code Generator (Lite mode) build 49521"
  2714                           
  2715  01D2'                    l88:
  2716  01D2' 0012               	return
  2717                           opt subtitle "HI-TECH Software Omniscient Code Generator (Lite mode) build 49521"
  2718                           
  2719  01D4'                    	__end_of_pid_limits:
  2720                           opt subtitle "HI-TECH Software Omniscient Code Generator (Lite mode) build 49521"
  2721                           
  2722                           opt pagewidth 120
  2723                           
  2724                           	opt lm
  2725                           
  2726                           	processor	18F2550
  2727                           porta	equ	0F80h
  2728                           portb	equ	0F81h
  2729                           portc	equ	0F82h
  2730                           portd	equ	0F83h
  2731                           porte	equ	0F84h
  2732                           lata	equ	0F89h
  2733                           latb	equ	0F8Ah
  2734                           latc	equ	0F8Bh
  2735                           latd	equ	0F8Ch
  2736                           late	equ	0F8Dh
  2737                           trisa	equ	0F92h
  2738                           trisb	equ	0F93h
  2739                           trisc	equ	0F94h
  2740                           trisd	equ	0F95h
  2741                           trise	equ	0F96h
  2742                           pie1	equ	0F9Dh
  2743                           pir1	equ	0F9Eh
  2744                           ipr1	equ	0F9Fh
  2745                           pie2	equ	0FA0h
  2746                           pir2	equ	0FA1h
  2747                           ipr2	equ	0FA2h
  2748                           t3con	equ	0FB1h
  2749                           tmr3l	equ	0FB2h
  2750                           tmr3h	equ	0FB3h
  2751                           ccp1con	equ	0FBDh
  2752                           ccpr1l	equ	0FBEh
  2753                           ccpr1h	equ	0FBFh
  2754                           adcon1	equ	0FC1h
  2755  0000'                    __ptext3:
  2756                           opt subtitle "HI-TECH Software Omniscient Code Generator (Lite mode) build 49521"
  2757                           
  2758                           opt pagewidth 120
  2759                           
  2760  0000                     	__size_of_pid_auto	equ	__end_of_pid_auto-_pid_auto
  2761                           opt subtitle "HI-TECH Software Omniscient Code Generator (Lite mode) build 49521"
  2762  0000'                    _pid_auto:
  2763                           opt subtitle "HI-TECH Software Omniscient Code Generator (Lite mode) build 49521"
  2764                           
  2765                           opt pagewidth 120
  2766  0000'                    l1881:
  2767                           opt subtitle "HI-TECH Software Omniscient Code Generator (Lite mode) build 49521"
  2768  0000' EE20 F023          	lfsr	2,023h
  2769  0004' 5009'              	movf	((c:pid_auto@pid)),c,w
  2770  0006' 26D9               	addwf	fsr2l
  2771  0008' 500A'              	movf	((c:pid_auto@pid+1)),c,w
  2772  000A' 22DA               	addwfc	fsr2h
  2773  000C' 50DF               	movf	indf2,w
  2774  000E' A4D8               	btfss	status,2
  2775  0010' D001               	goto	u881
  2776  0012' D001               	goto	u880
  2777  0014'                    u881:
  2778  0014' D0A2               	goto	l102
  2779  0016'                    u880:
  2780                           opt subtitle "HI-TECH Software Omniscient Code Generator (Lite mode) build 49521"
  2781                           
  2782  0016'                    l1883:
  2783                           opt subtitle "HI-TECH Software Omniscient Code Generator (Lite mode) build 49521"
  2784  0016' EE20 F002          	lfsr	2,02h
  2785  001A' 5009'              	movf	((c:pid_auto@pid)),c,w
  2786  001C' 26D9               	addwf	fsr2l
  2787  001E' 500A'              	movf	((c:pid_auto@pid+1)),c,w
  2788  0020' 22DA               	addwfc	fsr2h
  2789  0022' CFDE F00B'         	movff	postinc2,??_pid_auto+0+0
  2790  0026' CFDD F00C'         	movff	postdec2,??_pid_auto+0+0+1
  2791  002A' C00B' FFD9         	movff	??_pid_auto+0+0,fsr2l
  2792  002E' C00C' FFDA         	movff	??_pid_auto+0+1,fsr2h
  2793  0032' EE10 F018          	lfsr	1,018h
  2794  0036' 5009'              	movf	((c:pid_auto@pid)),c,w
  2795  0038' 26E1               	addwf	fsr1l
  2796  003A' 500A'              	movf	((c:pid_auto@pid+1)),c,w
  2797  003C' 22E2               	addwfc	fsr1h
  2798  003E' CFDE FFE6          	movff	postinc2,postinc1
  2799  0042' CFDE FFE6          	movff	postinc2,postinc1
  2800  0046' CFDE FFE5          	movff	postinc2,postdec1
  2801  004A' 52E5               	movf	postdec1
  2802                           opt subtitle "HI-TECH Software Omniscient Code Generator (Lite mode) build 49521"
  2803                           
  2804  004C' C009' FFD9         	movff	(c:pid_auto@pid),fsr2l
  2805  0050' C00A' FFDA         	movff	(c:pid_auto@pid+1),fsr2h
  2806  0054' CFDE F00B'         	movff	postinc2,??_pid_auto+0+0
  2807  0058' CFDD F00C'         	movff	postdec2,??_pid_auto+0+0+1
  2808  005C' C00B' FFD9         	movff	??_pid_auto+0+0,fsr2l
  2809  0060' C00C' FFDA         	movff	??_pid_auto+0+1,fsr2h
  2810  0064' EE10 F018          	lfsr	1,018h
  2811  0068' 5009'              	movf	((c:pid_auto@pid)),c,w
  2812  006A' 26E1               	addwf	fsr1l
  2813  006C' 500A'              	movf	((c:pid_auto@pid+1)),c,w
  2814  006E' 22E2               	addwfc	fsr1h
  2815  0070' CFDE FFE6          	movff	postinc2,postinc1
  2816  0074' CFDE FFE6          	movff	postinc2,postinc1
  2817  0078' CFDE FFE5          	movff	postinc2,postdec1
  2818  007C' 52E5               	movf	postdec1
  2819                           opt subtitle "HI-TECH Software Omniscient Code Generator (Lite mode) build 49521"
  2820                           
  2821  007E'                    l1885:
  2822                           opt subtitle "HI-TECH Software Omniscient Code Generator (Lite mode) build 49521"
  2823  007E' EE20 F012          	lfsr	2,012h
  2824  0082' 5009'              	movf	((c:pid_auto@pid)),c,w
  2825  0084' 26D9               	addwf	fsr2l
  2826  0086' 500A'              	movf	((c:pid_auto@pid+1)),c,w
  2827  0088' 22DA               	addwfc	fsr2h
  2828  008A' CFDE F000'         	movff	postinc2,(c:?___ftge)
  2829  008E' CFDE F001'         	movff	postinc2,(c:?___ftge+1)
  2830  0092' CFDD F002'         	movff	postdec2,(c:?___ftge+2)
  2831  0096' EE20 F015          	lfsr	2,015h
  2832  009A' 5009'              	movf	((c:pid_auto@pid)),c,w
  2833  009C' 26D9               	addwf	fsr2l
  2834  009E' 500A'              	movf	((c:pid_auto@pid+1)),c,w
  2835  00A0' 22DA               	addwfc	fsr2h
  2836  00A2' CFDE F003'         	movff	postinc2,0+((c:?___ftge)+03h)
  2837  00A6' CFDE F004'         	movff	postinc2,1+((c:?___ftge)+03h)
  2838  00AA' CFDD F005'         	movff	postdec2,2+((c:?___ftge)+03h)
  2839  00AE' EC00' F000'        	call	___ftge	;wreg free
  2840  00B2' B0D8               	btfsc	status,0
  2841  00B4' D001               	goto	u891
  2842  00B6' D001               	goto	u890
  2843  00B8'                    u891:
  2844  00B8' D014               	goto	l1889
  2845  00BA'                    u890:
  2846                           opt subtitle "HI-TECH Software Omniscient Code Generator (Lite mode) build 49521"
  2847                           
  2848  00BA'                    l1887:
  2849                           opt subtitle "HI-TECH Software Omniscient Code Generator (Lite mode) build 49521"
  2850  00BA' EE20 F012          	lfsr	2,012h
  2851  00BE' 5009'              	movf	((c:pid_auto@pid)),c,w
  2852  00C0' 26D9               	addwf	fsr2l
  2853  00C2' 500A'              	movf	((c:pid_auto@pid+1)),c,w
  2854  00C4' 22DA               	addwfc	fsr2h
  2855  00C6' EE10 F015          	lfsr	1,015h
  2856  00CA' 5009'              	movf	((c:pid_auto@pid)),c,w
  2857  00CC' 26E1               	addwf	fsr1l
  2858  00CE' 500A'              	movf	((c:pid_auto@pid+1)),c,w
  2859  00D0' 22E2               	addwfc	fsr1h
  2860  00D2' CFDE FFE6          	movff	postinc2,postinc1
  2861  00D6' CFDE FFE6          	movff	postinc2,postinc1
  2862  00DA' CFDE FFE5          	movff	postinc2,postdec1
  2863  00DE' 52E5               	movf	postdec1
  2864  00E0' D033               	goto	l1893
  2865                           opt subtitle "HI-TECH Software Omniscient Code Generator (Lite mode) build 49521"
  2866                           
  2867  00E2'                    l99:
  2868                           opt subtitle "HI-TECH Software Omniscient Code Generator (Lite mode) build 49521"
  2869  00E2'                    l1889:
  2870                           opt subtitle "HI-TECH Software Omniscient Code Generator (Lite mode) build 49521"
  2871  00E2' EE20 F015          	lfsr	2,015h
  2872  00E6' 5009'              	movf	((c:pid_auto@pid)),c,w
  2873  00E8' 26D9               	addwf	fsr2l
  2874  00EA' 500A'              	movf	((c:pid_auto@pid+1)),c,w
  2875  00EC' 22DA               	addwfc	fsr2h
  2876  00EE' CFDE F000'         	movff	postinc2,(c:?___ftge)
  2877  00F2' CFDE F001'         	movff	postinc2,(c:?___ftge+1)
  2878  00F6' CFDD F002'         	movff	postdec2,(c:?___ftge+2)
  2879  00FA' EE20 F00F          	lfsr	2,0Fh
  2880  00FE' 5009'              	movf	((c:pid_auto@pid)),c,w
  2881  0100' 26D9               	addwf	fsr2l
  2882  0102' 500A'              	movf	((c:pid_auto@pid+1)),c,w
  2883  0104' 22DA               	addwfc	fsr2h
  2884  0106' CFDE F003'         	movff	postinc2,0+((c:?___ftge)+03h)
  2885  010A' CFDE F004'         	movff	postinc2,1+((c:?___ftge)+03h)
  2886  010E' CFDD F005'         	movff	postdec2,2+((c:?___ftge)+03h)
  2887  0112' EC00' F000'        	call	___ftge	;wreg free
  2888  0116' B0D8               	btfsc	status,0
  2889  0118' D001               	goto	u901
  2890  011A' D001               	goto	u900
  2891  011C'                    u901:
  2892  011C' D015               	goto	l1893
  2893  011E'                    u900:
  2894                           opt subtitle "HI-TECH Software Omniscient Code Generator (Lite mode) build 49521"
  2895                           
  2896  011E'                    l1891:
  2897                           opt subtitle "HI-TECH Software Omniscient Code Generator (Lite mode) build 49521"
  2898  011E' EE20 F00F          	lfsr	2,0Fh
  2899  0122' 5009'              	movf	((c:pid_auto@pid)),c,w
  2900  0124' 26D9               	addwf	fsr2l
  2901  0126' 500A'              	movf	((c:pid_auto@pid+1)),c,w
  2902  0128' 22DA               	addwfc	fsr2h
  2903  012A' EE10 F015          	lfsr	1,015h
  2904  012E' 5009'              	movf	((c:pid_auto@pid)),c,w
  2905  0130' 26E1               	addwf	fsr1l
  2906  0132' 500A'              	movf	((c:pid_auto@pid+1)),c,w
  2907  0134' 22E2               	addwfc	fsr1h
  2908  0136' CFDE FFE6          	movff	postinc2,postinc1
  2909  013A' CFDE FFE6          	movff	postinc2,postinc1
  2910  013E' CFDE FFE5          	movff	postinc2,postdec1
  2911  0142' 52E5               	movf	postdec1
  2912  0144' D001               	goto	l1893
  2913                           opt subtitle "HI-TECH Software Omniscient Code Generator (Lite mode) build 49521"
  2914  0146'                    l101:
  2915  0146' D000               	goto	l1893
  2916                           opt subtitle "HI-TECH Software Omniscient Code Generator (Lite mode) build 49521"
  2917                           
  2918  0148'                    l100:
  2919                           opt subtitle "HI-TECH Software Omniscient Code Generator (Lite mode) build 49521"
  2920  0148'                    l1893:
  2921                           opt subtitle "HI-TECH Software Omniscient Code Generator (Lite mode) build 49521"
  2922  0148' EE20 F023          	lfsr	2,023h
  2923  014C' 5009'              	movf	((c:pid_auto@pid)),c,w
  2924  014E' 26D9               	addwf	fsr2l
  2925  0150' 500A'              	movf	((c:pid_auto@pid+1)),c,w
  2926  0152' 22DA               	addwfc	fsr2h
  2927  0154' 0E01               	movlw	low(01h)
  2928  0156' 6EDF               	movwf	indf2
  2929  0158' D000               	goto	l102
  2930                           opt subtitle "HI-TECH Software Omniscient Code Generator (Lite mode) build 49521"
  2931                           
  2932  015A'                    l98:
  2933                           opt subtitle "HI-TECH Software Omniscient Code Generator (Lite mode) build 49521"
  2934                           
  2935  015A'                    l102:
  2936  015A' 0012               	return
  2937                           opt subtitle "HI-TECH Software Omniscient Code Generator (Lite mode) build 49521"
  2938                           
  2939  015C'                    	__end_of_pid_auto:
  2940                           opt subtitle "HI-TECH Software Omniscient Code Generator (Lite mode) build 49521"
  2941                           
  2942                           opt pagewidth 120
  2943                           
  2944                           	opt lm
  2945                           
  2946                           	processor	18F2550
  2947                           porta	equ	0F80h
  2948                           portb	equ	0F81h
  2949                           portc	equ	0F82h
  2950                           portd	equ	0F83h
  2951                           porte	equ	0F84h
  2952                           lata	equ	0F89h
  2953                           latb	equ	0F8Ah
  2954                           latc	equ	0F8Bh
  2955                           latd	equ	0F8Ch
  2956                           late	equ	0F8Dh
  2957                           trisa	equ	0F92h
  2958                           trisb	equ	0F93h
  2959                           trisc	equ	0F94h
  2960                           trisd	equ	0F95h
  2961                           trise	equ	0F96h
  2962                           pie1	equ	0F9Dh
  2963                           pir1	equ	0F9Eh
  2964                           ipr1	equ	0F9Fh
  2965                           pie2	equ	0FA0h
  2966                           pir2	equ	0FA1h
  2967                           ipr2	equ	0FA2h
  2968                           t3con	equ	0FB1h
  2969                           tmr3l	equ	0FB2h
  2970                           tmr3h	equ	0FB3h
  2971                           ccp1con	equ	0FBDh
  2972                           ccpr1l	equ	0FBEh
  2973                           ccpr1h	equ	0FBFh
  2974                           adcon1	equ	0FC1h
  2975                           adcon0	equ	0FC2h
  2976                           adresl	equ	0FC3h
  2977                           adresh	equ	0FC4h
  2978                           sspcon2	equ	0FC5h
  2979                           sspcon1	equ	0FC6h
  2980                           sspstat	equ	0FC7h
  2981                           sspadd	equ	0FC8h
  2982                           sspbuf	equ	0FC9h
  2983                           t2con	equ	0FCAh
  2984                           pr2	equ	0FCBh
  2985  0000'                    __ptext4:
  2986                           opt subtitle "HI-TECH Software Omniscient Code Generator (Lite mode) build 49521"
  2987                           
  2988                           opt pagewidth 120
  2989                           
  2990  0000                     	__size_of_pid_compute	equ	__end_of_pid_compute-_pid_compute
  2991                           opt subtitle "HI-TECH Software Omniscient Code Generator (Lite mode) build 49521"
  2992  0000'                    _pid_compute:
  2993                           opt subtitle "HI-TECH Software Omniscient Code Generator (Lite mode) build 49521"
  2994                           
  2995                           opt pagewidth 120
  2996  0000'                    l2101:
  2997                           opt subtitle "HI-TECH Software Omniscient Code Generator (Lite mode) build 49521"
  2998                           
  2999  0000' EE20 F023          	lfsr	2,023h
  3000  0004' 502F'              	movf	((c:pid_compute@pid)),c,w
  3001  0006' 26D9               	addwf	fsr2l
  3002  0008' 5030'              	movf	((c:pid_compute@pid+1)),c,w
  3003  000A' 22DA               	addwfc	fsr2h
  3004  000C' 50DF               	movf	indf2,w
  3005  000E' A4D8               	btfss	status,2
  3006  0010' D001               	goto	u1281
  3007  0012' D001               	goto	u1280
  3008  0014'                    u1281:
  3009  0014' D002               	goto	l2105
  3010  0016'                    u1280:
  3011  0016' D205               	goto	l66
  3012                           opt subtitle "HI-TECH Software Omniscient Code Generator (Lite mode) build 49521"
  3013                           
  3014  0018'                    l2103:
  3015                           opt subtitle "HI-TECH Software Omniscient Code Generator (Lite mode) build 49521"
  3016                           
  3017  0018' D204               	goto	l66
  3018                           opt subtitle "HI-TECH Software Omniscient Code Generator (Lite mode) build 49521"
  3019  001A'                    l65:
  3020                           opt subtitle "HI-TECH Software Omniscient Code Generator (Lite mode) build 49521"
  3021                           
  3022  001A'                    l2105:
  3023                           opt subtitle "HI-TECH Software Omniscient Code Generator (Lite mode) build 49521"
  3024  001A' EC00' F000'        	call	_tick_get	;wreg free
  3025  001E' C000' F043'        	movff	0+?_tick_get,(c:pid_compute@now)
  3026  0022' C001' F044'        	movff	1+?_tick_get,(c:pid_compute@now+1)
  3027  0026' C002' F045'        	movff	2+?_tick_get,(c:pid_compute@now+2)
  3028  002A' C003' F046'        	movff	3+?_tick_get,(c:pid_compute@now+3)
  3029                           opt subtitle "HI-TECH Software Omniscient Code Generator (Lite mode) build 49521"
  3030                           
  3031  002E'                    l2107:
  3032                           opt subtitle "HI-TECH Software Omniscient Code Generator (Lite mode) build 49521"
  3033  002E' EE20 F01F          	lfsr	2,01Fh
  3034  0032' 502F'              	movf	((c:pid_compute@pid)),c,w
  3035  0034' 26D9               	addwf	fsr2l
  3036  0036' 5030'              	movf	((c:pid_compute@pid+1)),c,w
  3037  0038' 22DA               	addwfc	fsr2h
  3038  003A' CFDE F031'         	movff	postinc2,??_pid_compute+0+0
  3039  003E' CFDE F032'         	movff	postinc2,??_pid_compute+0+0+1
  3040  0042' CFDE F033'         	movff	postinc2,??_pid_compute+0+0+2
  3041  0046' CFDE F034'         	movff	postinc2,??_pid_compute+0+0+3
  3042  004A' EE20 F01B          	lfsr	2,01Bh
  3043  004E' 502F'              	movf	((c:pid_compute@pid)),c,w
  3044  0050' 26D9               	addwf	fsr2l
  3045  0052' 5030'              	movf	((c:pid_compute@pid+1)),c,w
  3046  0054' 22DA               	addwfc	fsr2h
  3047  0056' CFDE F035'         	movff	postinc2,??_pid_compute+4+0
  3048  005A' CFDE F036'         	movff	postinc2,??_pid_compute+4+0+1
  3049  005E' CFDE F037'         	movff	postinc2,??_pid_compute+4+0+2
  3050  0062' CFDE F038'         	movff	postinc2,??_pid_compute+4+0+3
  3051  0066' 1E35'              	comf	(??_pid_compute+4+0),c
  3052  0068' 1E36'              	comf	(??_pid_compute+4+1),c
  3053  006A' 1E37'              	comf	(??_pid_compute+4+2),c
  3054  006C' 1E38'              	comf	(??_pid_compute+4+3),c
  3055  006E' 2A35'              	incf	(??_pid_compute+4+0),c
  3056  0070' 0E00               	movlw	0
  3057  0072' 2236'              	addwfc	(??_pid_compute+4+1),c
  3058  0074' 2237'              	addwfc	(??_pid_compute+4+2),c
  3059  0076' 2238'              	addwfc	(??_pid_compute+4+3),c
  3060  0078' 5043'              	movf	((c:pid_compute@now)),c,w
  3061  007A' 2435'              	addwf	(??_pid_compute+4+0),c,w
  3062  007C' 6E00'              	movwf	(??_pid_compute+8+0)&0ffh,c
  3063  007E' 5044'              	movf	((c:pid_compute@now+1)),c,w
  3064  0080' 2036'              	addwfc	(??_pid_compute+4+1),c,w
  3065  0082' 6E00'              	movwf	1+(??_pid_compute+8+0)&0ffh,c
  3066                           opt subtitle "HI-TECH Software Omniscient Code Generator (Lite mode) build 49521"
  3067  0084' 5045'              	movf	((c:pid_compute@now+2)),c,w
  3068  0086' 2037'              	addwfc	(??_pid_compute+4+2),c,w
  3069  0088' 6E00'              	movwf	2+(??_pid_compute+8+0)&0ffh,c
  3070                           opt subtitle "HI-TECH Software Omniscient Code Generator (Lite mode) build 49521"
  3071  008A' 5046'              	movf	((c:pid_compute@now+3)),c,w
  3072  008C' 2038'              	addwfc	(??_pid_compute+4+3),c,w
  3073  008E' 6E00'              	movwf	3+(??_pid_compute+8+0)&0ffh,c
  3074  0090' 5031'              	movf	(??_pid_compute+0+0),c,w
  3075  0092' 5C39'              	subwf	(??_pid_compute+8+0),c,w
  3076  0094' 5032'              	movf	(??_pid_compute+0+1),c,w
  3077  0096' 583A'              	subwfb	(??_pid_compute+8+1),c,w
  3078  0098' 5033'              	movf	(??_pid_compute+0+2),c,w
  3079  009A' 583B'              	subwfb	(??_pid_compute+8+2),c,w
  3080  009C' 5034'              	movf	(??_pid_compute+0+3),c,w
  3081  009E' 583C'              	subwfb	(??_pid_compute+8+3),c,w
  3082  00A0' A0D8               	btfss	status,0
  3083  00A2' D001               	goto	u1291
  3084  00A4' D001               	goto	u1290
  3085  00A6'                    u1291:
  3086  00A6' D1BD               	goto	l66
  3087  00A8'                    u1290:
  3088                           opt subtitle "HI-TECH Software Omniscient Code Generator (Lite mode) build 49521"
  3089                           
  3090  00A8'                    l2109:
  3091                           opt subtitle "HI-TECH Software Omniscient Code Generator (Lite mode) build 49521"
  3092  00A8' C02F' FFD9         	movff	(c:pid_compute@pid),fsr2l
  3093  00AC' C030' FFDA         	movff	(c:pid_compute@pid+1),fsr2h
  3094  00B0' CFDE F031'         	movff	postinc2,??_pid_compute+0+0
  3095  00B4' CFDD F032'         	movff	postdec2,??_pid_compute+0+0+1
  3096  00B8' C031' FFD9         	movff	??_pid_compute+0+0,fsr2l
  3097  00BC' C032' FFDA         	movff	??_pid_compute+0+1,fsr2h
  3098  00C0' CFDE F04A'         	movff	postinc2,(c:pid_compute@in)
  3099  00C4' CFDE F04B'         	movff	postinc2,(c:pid_compute@in+1)
  3100  00C8' CFDD F04C'         	movff	postdec2,(c:pid_compute@in+2)
  3101                           opt subtitle "HI-TECH Software Omniscient Code Generator (Lite mode) build 49521"
  3102                           
  3103  00CC'                    l2111:
  3104                           opt subtitle "HI-TECH Software Omniscient Code Generator (Lite mode) build 49521"
  3105  00CC' C04A' F008'        	movff	(c:pid_compute@in),(c:?___ftneg)
  3106  00D0' C04B' F009'        	movff	(c:pid_compute@in+1),(c:?___ftneg+1)
  3107  00D4' C04C' F00A'        	movff	(c:pid_compute@in+2),(c:?___ftneg+2)
  3108  00D8' EC00' F000'        	call	___ftneg	;wreg free
  3109  00DC' C008' F01C'        	movff	0+?___ftneg,(c:?___ftadd)
  3110  00E0' C009' F01D'        	movff	1+?___ftneg,(c:?___ftadd+1)
  3111  00E4' C00A' F01E'        	movff	2+?___ftneg,(c:?___ftadd+2)
  3112  00E8' EE20 F004          	lfsr	2,04h
  3113  00EC' 502F'              	movf	((c:pid_compute@pid)),c,w
  3114  00EE' 26D9               	addwf	fsr2l
  3115  00F0' 5030'              	movf	((c:pid_compute@pid+1)),c,w
  3116  00F2' 22DA               	addwfc	fsr2h
  3117  00F4' CFDE F031'         	movff	postinc2,??_pid_compute+0+0
  3118  00F8' CFDD F032'         	movff	postdec2,??_pid_compute+0+0+1
  3119  00FC' C031' FFD9         	movff	??_pid_compute+0+0,fsr2l
  3120  0100' C032' FFDA         	movff	??_pid_compute+0+1,fsr2h
  3121  0104' CFDE F01F'         	movff	postinc2,0+((c:?___ftadd)+03h)
  3122  0108' CFDE F020'         	movff	postinc2,1+((c:?___ftadd)+03h)
  3123  010C' CFDD F021'         	movff	postdec2,2+((c:?___ftadd)+03h)
  3124  0110' EC00' F000'        	call	___ftadd	;wreg free
  3125  0114' C01C' F047'        	movff	0+?___ftadd,(c:pid_compute@error)
  3126  0118' C01D' F048'        	movff	1+?___ftadd,(c:pid_compute@error+1)
  3127  011C' C01E' F049'        	movff	2+?___ftadd,(c:pid_compute@error+2)
  3128                           opt subtitle "HI-TECH Software Omniscient Code Generator (Lite mode) build 49521"
  3129                           
  3130  0120'                    l2113:
  3131                           opt subtitle "HI-TECH Software Omniscient Code Generator (Lite mode) build 49521"
  3132  0120' 0E15               	movlw	low(015h)
  3133  0122' 242F'              	addwf	((c:pid_compute@pid)),c,w
  3134                           opt subtitle "HI-TECH Software Omniscient Code Generator (Lite mode) build 49521"
  3135  0124' 6E2A'              	movwf	((c:?___asftadd)),c
  3136  0126' 0E00               	movlw	high(015h)
  3137  0128' 2030'              	addwfc	((c:pid_compute@pid+1)),c,w
  3138  012A' 6E2B'              	movwf	1+((c:?___asftadd)),c
  3139  012C' C047' F00E'        	movff	(c:pid_compute@error),0+((c:?___ftmul)+03h)
  3140  0130' C048' F00F'        	movff	(c:pid_compute@error+1),1+((c:?___ftmul)+03h)
  3141  0134' C049' F010'        	movff	(c:pid_compute@error+2),2+((c:?___ftmul)+03h)
  3142  0138' EE20 F009          	lfsr	2,09h
  3143  013C' 502F'              	movf	((c:pid_compute@pid)),c,w
  3144  013E' 26D9               	addwf	fsr2l
  3145  0140' 5030'              	movf	((c:pid_compute@pid+1)),c,w
  3146  0142' 22DA               	addwfc	fsr2h
  3147  0144' CFDE F00B'         	movff	postinc2,(c:?___ftmul)
  3148  0148' CFDE F00C'         	movff	postinc2,(c:?___ftmul+1)
  3149  014C' CFDD F00D'         	movff	postdec2,(c:?___ftmul+2)
  3150  0150' EC00' F000'        	call	___ftmul	;wreg free
  3151  0154' C00B' F02C'        	movff	0+?___ftmul,0+((c:?___asftadd)+02h)
  3152  0158' C00C' F02D'        	movff	1+?___ftmul,1+((c:?___asftadd)+02h)
  3153  015C' C00D' F02E'        	movff	2+?___ftmul,2+((c:?___asftadd)+02h)
  3154  0160' EC00' F000'        	call	___asftadd	;wreg free
  3155                           opt subtitle "HI-TECH Software Omniscient Code Generator (Lite mode) build 49521"
  3156                           
  3157  0164'                    l2115:
  3158                           opt subtitle "HI-TECH Software Omniscient Code Generator (Lite mode) build 49521"
  3159  0164' EE20 F012          	lfsr	2,012h
  3160  0168' 502F'              	movf	((c:pid_compute@pid)),c,w
  3161  016A' 26D9               	addwf	fsr2l
  3162  016C' 5030'              	movf	((c:pid_compute@pid+1)),c,w
  3163  016E' 22DA               	addwfc	fsr2h
  3164  0170' CFDE F000'         	movff	postinc2,(c:?___ftge)
  3165  0174' CFDE F001'         	movff	postinc2,(c:?___ftge+1)
  3166  0178' CFDD F002'         	movff	postdec2,(c:?___ftge+2)
  3167  017C' EE20 F015          	lfsr	2,015h
  3168  0180' 502F'              	movf	((c:pid_compute@pid)),c,w
  3169  0182' 26D9               	addwf	fsr2l
  3170  0184' 5030'              	movf	((c:pid_compute@pid+1)),c,w
  3171  0186' 22DA               	addwfc	fsr2h
  3172  0188' CFDE F003'         	movff	postinc2,0+((c:?___ftge)+03h)
  3173  018C' CFDE F004'         	movff	postinc2,1+((c:?___ftge)+03h)
  3174  0190' CFDD F005'         	movff	postdec2,2+((c:?___ftge)+03h)
  3175  0194' EC00' F000'        	call	___ftge	;wreg free
  3176  0198' B0D8               	btfsc	status,0
  3177  019A' D001               	goto	u1301
  3178  019C' D001               	goto	u1300
  3179  019E'                    u1301:
  3180  019E' D014               	goto	l2119
  3181  01A0'                    u1300:
  3182                           opt subtitle "HI-TECH Software Omniscient Code Generator (Lite mode) build 49521"
  3183                           
  3184  01A0'                    l2117:
  3185                           opt subtitle "HI-TECH Software Omniscient Code Generator (Lite mode) build 49521"
  3186  01A0' EE20 F012          	lfsr	2,012h
  3187  01A4' 502F'              	movf	((c:pid_compute@pid)),c,w
  3188  01A6' 26D9               	addwf	fsr2l
  3189  01A8' 5030'              	movf	((c:pid_compute@pid+1)),c,w
  3190  01AA' 22DA               	addwfc	fsr2h
  3191  01AC' EE10 F015          	lfsr	1,015h
  3192  01B0' 502F'              	movf	((c:pid_compute@pid)),c,w
  3193  01B2' 26E1               	addwf	fsr1l
  3194  01B4' 5030'              	movf	((c:pid_compute@pid+1)),c,w
  3195  01B6' 22E2               	addwfc	fsr1h
  3196  01B8' CFDE FFE6          	movff	postinc2,postinc1
  3197  01BC' CFDE FFE6          	movff	postinc2,postinc1
  3198  01C0' CFDE FFE5          	movff	postinc2,postdec1
  3199  01C4' 52E5               	movf	postdec1
  3200  01C6' D033               	goto	l2123
  3201                           opt subtitle "HI-TECH Software Omniscient Code Generator (Lite mode) build 49521"
  3202                           
  3203  01C8'                    l68:
  3204                           opt subtitle "HI-TECH Software Omniscient Code Generator (Lite mode) build 49521"
  3205  01C8'                    l2119:
  3206                           opt subtitle "HI-TECH Software Omniscient Code Generator (Lite mode) build 49521"
  3207  01C8' EE20 F015          	lfsr	2,015h
  3208  01CC' 502F'              	movf	((c:pid_compute@pid)),c,w
  3209  01CE' 26D9               	addwf	fsr2l
  3210  01D0' 5030'              	movf	((c:pid_compute@pid+1)),c,w
  3211  01D2' 22DA               	addwfc	fsr2h
  3212  01D4' CFDE F000'         	movff	postinc2,(c:?___ftge)
  3213  01D8' CFDE F001'         	movff	postinc2,(c:?___ftge+1)
  3214  01DC' CFDD F002'         	movff	postdec2,(c:?___ftge+2)
  3215  01E0' EE20 F00F          	lfsr	2,0Fh
  3216  01E4' 502F'              	movf	((c:pid_compute@pid)),c,w
  3217  01E6' 26D9               	addwf	fsr2l
  3218  01E8' 5030'              	movf	((c:pid_compute@pid+1)),c,w
  3219  01EA' 22DA               	addwfc	fsr2h
  3220  01EC' CFDE F003'         	movff	postinc2,0+((c:?___ftge)+03h)
  3221  01F0' CFDE F004'         	movff	postinc2,1+((c:?___ftge)+03h)
  3222  01F4' CFDD F005'         	movff	postdec2,2+((c:?___ftge)+03h)
  3223  01F8' EC00' F000'        	call	___ftge	;wreg free
  3224  01FC' B0D8               	btfsc	status,0
  3225  01FE' D001               	goto	u1311
  3226  0200' D001               	goto	u1310
  3227  0202'                    u1311:
  3228  0202' D015               	goto	l2123
  3229  0204'                    u1310:
  3230                           opt subtitle "HI-TECH Software Omniscient Code Generator (Lite mode) build 49521"
  3231                           
  3232  0204'                    l2121:
  3233                           opt subtitle "HI-TECH Software Omniscient Code Generator (Lite mode) build 49521"
  3234  0204' EE20 F00F          	lfsr	2,0Fh
  3235  0208' 502F'              	movf	((c:pid_compute@pid)),c,w
  3236  020A' 26D9               	addwf	fsr2l
  3237  020C' 5030'              	movf	((c:pid_compute@pid+1)),c,w
  3238  020E' 22DA               	addwfc	fsr2h
  3239  0210' EE10 F015          	lfsr	1,015h
  3240  0214' 502F'              	movf	((c:pid_compute@pid)),c,w
  3241  0216' 26E1               	addwf	fsr1l
  3242  0218' 5030'              	movf	((c:pid_compute@pid+1)),c,w
  3243  021A' 22E2               	addwfc	fsr1h
  3244  021C' CFDE FFE6          	movff	postinc2,postinc1
  3245  0220' CFDE FFE6          	movff	postinc2,postinc1
  3246  0224' CFDE FFE5          	movff	postinc2,postdec1
  3247  0228' 52E5               	movf	postdec1
  3248  022A' D001               	goto	l2123
  3249                           opt subtitle "HI-TECH Software Omniscient Code Generator (Lite mode) build 49521"
  3250  022C'                    l70:
  3251  022C' D000               	goto	l2123
  3252                           opt subtitle "HI-TECH Software Omniscient Code Generator (Lite mode) build 49521"
  3253                           
  3254  022E'                    l69:
  3255                           opt subtitle "HI-TECH Software Omniscient Code Generator (Lite mode) build 49521"
  3256  022E'                    l2123:
  3257                           opt subtitle "HI-TECH Software Omniscient Code Generator (Lite mode) build 49521"
  3258  022E' EE20 F018          	lfsr	2,018h
  3259  0232' 502F'              	movf	((c:pid_compute@pid)),c,w
  3260  0234' 26D9               	addwf	fsr2l
  3261  0236' 5030'              	movf	((c:pid_compute@pid+1)),c,w
  3262  0238' 22DA               	addwfc	fsr2h
  3263  023A' CFDE F008'         	movff	postinc2,(c:?___ftneg)
  3264  023E' CFDE F009'         	movff	postinc2,(c:?___ftneg+1)
  3265  0242' CFDD F00A'         	movff	postdec2,(c:?___ftneg+2)
  3266  0246' EC00' F000'        	call	___ftneg	;wreg free
  3267  024A' C008' F01C'        	movff	0+?___ftneg,(c:?___ftadd)
  3268  024E' C009' F01D'        	movff	1+?___ftneg,(c:?___ftadd+1)
  3269  0252' C00A' F01E'        	movff	2+?___ftneg,(c:?___ftadd+2)
  3270  0256' C04A' F01F'        	movff	(c:pid_compute@in),0+((c:?___ftadd)+03h)
  3271  025A' C04B' F020'        	movff	(c:pid_compute@in+1),1+((c:?___ftadd)+03h)
  3272  025E' C04C' F021'        	movff	(c:pid_compute@in+2),2+((c:?___ftadd)+03h)
  3273  0262' EC00' F000'        	call	___ftadd	;wreg free
  3274  0266' C01C' F03D'        	movff	0+?___ftadd,(c:pid_compute@dinput)
  3275  026A' C01D' F03E'        	movff	1+?___ftadd,(c:pid_compute@dinput+1)
  3276  026E' C01E' F03F'        	movff	2+?___ftadd,(c:pid_compute@dinput+2)
  3277                           opt subtitle "HI-TECH Software Omniscient Code Generator (Lite mode) build 49521"
  3278                           
  3279  0272'                    l2125:
  3280                           opt subtitle "HI-TECH Software Omniscient Code Generator (Lite mode) build 49521"
  3281  0272' C03D' F00E'        	movff	(c:pid_compute@dinput),0+((c:?___ftmul)+03h)
  3282  0276' C03E' F00F'        	movff	(c:pid_compute@dinput+1),1+((c:?___ftmul)+03h)
  3283  027A' C03F' F010'        	movff	(c:pid_compute@dinput+2),2+((c:?___ftmul)+03h)
  3284  027E' EE20 F00C          	lfsr	2,0Ch
  3285  0282' 502F'              	movf	((c:pid_compute@pid)),c,w
  3286  0284' 26D9               	addwf	fsr2l
  3287  0286' 5030'              	movf	((c:pid_compute@pid+1)),c,w
  3288  0288' 22DA               	addwfc	fsr2h
  3289  028A' CFDE F00B'         	movff	postinc2,(c:?___ftmul)
  3290  028E' CFDE F00C'         	movff	postinc2,(c:?___ftmul+1)
  3291  0292' CFDD F00D'         	movff	postdec2,(c:?___ftmul+2)
  3292  0296' EC00' F000'        	call	___ftmul	;wreg free
  3293  029A' C00B' F008'        	movff	0+?___ftmul,(c:?___ftneg)
  3294  029E' C00C' F009'        	movff	1+?___ftmul,(c:?___ftneg+1)
  3295  02A2' C00D' F00A'        	movff	2+?___ftmul,(c:?___ftneg+2)
  3296  02A6' EC00' F000'        	call	___ftneg	;wreg free
  3297  02AA' C008' F01F'        	movff	0+?___ftneg,0+((c:?___ftadd)+03h)
  3298  02AE' C009' F020'        	movff	1+?___ftneg,1+((c:?___ftadd)+03h)
  3299  02B2' C00A' F021'        	movff	2+?___ftneg,2+((c:?___ftadd)+03h)
  3300  02B6' C047' F00E'        	movff	(c:pid_compute@error),0+((c:?___ftmul)+03h)
  3301  02BA' C048' F00F'        	movff	(c:pid_compute@error+1),1+((c:?___ftmul)+03h)
  3302  02BE' C049' F010'        	movff	(c:pid_compute@error+2),2+((c:?___ftmul)+03h)
  3303  02C2' EE20 F006          	lfsr	2,06h
  3304  02C6' 502F'              	movf	((c:pid_compute@pid)),c,w
  3305  02C8' 26D9               	addwf	fsr2l
  3306  02CA' 5030'              	movf	((c:pid_compute@pid+1)),c,w
  3307  02CC' 22DA               	addwfc	fsr2h
  3308  02CE' CFDE F00B'         	movff	postinc2,(c:?___ftmul)
  3309  02D2' CFDE F00C'         	movff	postinc2,(c:?___ftmul+1)
  3310  02D6' CFDD F00D'         	movff	postdec2,(c:?___ftmul+2)
  3311  02DA' EC00' F000'        	call	___ftmul	;wreg free
  3312  02DE' C00B' F01C'        	movff	0+?___ftmul,(c:?___ftadd)
  3313  02E2' C00C' F01D'        	movff	1+?___ftmul,(c:?___ftadd+1)
  3314  02E6' C00D' F01E'        	movff	2+?___ftmul,(c:?___ftadd+2)
  3315  02EA' EC00' F000'        	call	___ftadd	;wreg free
  3316  02EE' C01C' F040'        	movff	0+?___ftadd,(c:_pid_compute$964)
  3317  02F2' C01D' F041'        	movff	1+?___ftadd,(c:_pid_compute$964+1)
  3318  02F6' C01E' F042'        	movff	2+?___ftadd,(c:_pid_compute$964+2)
  3319                           opt subtitle "HI-TECH Software Omniscient Code Generator (Lite mode) build 49521"
  3320  02FA'                    l2127:
  3321                           opt subtitle "HI-TECH Software Omniscient Code Generator (Lite mode) build 49521"
  3322  02FA' C040' F01C'        	movff	(c:_pid_compute$964),(c:?___ftadd)
  3323  02FE' C041' F01D'        	movff	(c:_pid_compute$964+1),(c:?___ftadd+1)
  3324  0302' C042' F01E'        	movff	(c:_pid_compute$964+2),(c:?___ftadd+2)
  3325  0306' EE20 F015          	lfsr	2,015h
  3326  030A' 502F'              	movf	((c:pid_compute@pid)),c,w
  3327  030C' 26D9               	addwf	fsr2l
  3328  030E' 5030'              	movf	((c:pid_compute@pid+1)),c,w
  3329  0310' 22DA               	addwfc	fsr2h
  3330  0312' CFDE F01F'         	movff	postinc2,0+((c:?___ftadd)+03h)
  3331  0316' CFDE F020'         	movff	postinc2,1+((c:?___ftadd)+03h)
  3332  031A' CFDD F021'         	movff	postdec2,2+((c:?___ftadd)+03h)
  3333  031E' EC00' F000'        	call	___ftadd	;wreg free
  3334  0322' C01C' F04D'        	movff	0+?___ftadd,(c:pid_compute@out)
  3335  0326' C01D' F04E'        	movff	1+?___ftadd,(c:pid_compute@out+1)
  3336  032A' C01E' F04F'        	movff	2+?___ftadd,(c:pid_compute@out+2)
  3337                           opt subtitle "HI-TECH Software Omniscient Code Generator (Lite mode) build 49521"
  3338                           
  3339  032E'                    l2129:
  3340                           opt subtitle "HI-TECH Software Omniscient Code Generator (Lite mode) build 49521"
  3341  032E' EE20 F012          	lfsr	2,012h
  3342  0332' 502F'              	movf	((c:pid_compute@pid)),c,w
  3343  0334' 26D9               	addwf	fsr2l
  3344  0336' 5030'              	movf	((c:pid_compute@pid+1)),c,w
  3345  0338' 22DA               	addwfc	fsr2h
  3346  033A' CFDE F000'         	movff	postinc2,(c:?___ftge)
  3347  033E' CFDE F001'         	movff	postinc2,(c:?___ftge+1)
  3348  0342' CFDD F002'         	movff	postdec2,(c:?___ftge+2)
  3349  0346' C04D' F003'        	movff	(c:pid_compute@out),0+((c:?___ftge)+03h)
  3350  034A' C04E' F004'        	movff	(c:pid_compute@out+1),1+((c:?___ftge)+03h)
  3351  034E' C04F' F005'        	movff	(c:pid_compute@out+2),2+((c:?___ftge)+03h)
  3352  0352' EC00' F000'        	call	___ftge	;wreg free
  3353  0356' B0D8               	btfsc	status,0
  3354  0358' D001               	goto	u1321
  3355  035A' D001               	goto	u1320
  3356  035C'                    u1321:
  3357  035C' D00D               	goto	l2133
  3358  035E'                    u1320:
  3359                           opt subtitle "HI-TECH Software Omniscient Code Generator (Lite mode) build 49521"
  3360                           
  3361  035E'                    l2131:
  3362                           opt subtitle "HI-TECH Software Omniscient Code Generator (Lite mode) build 49521"
  3363  035E' EE20 F012          	lfsr	2,012h
  3364  0362' 502F'              	movf	((c:pid_compute@pid)),c,w
  3365  0364' 26D9               	addwf	fsr2l
  3366  0366' 5030'              	movf	((c:pid_compute@pid+1)),c,w
  3367  0368' 22DA               	addwfc	fsr2h
  3368  036A' CFDE F04D'         	movff	postinc2,(c:pid_compute@out)
  3369  036E' CFDE F04E'         	movff	postinc2,(c:pid_compute@out+1)
  3370  0372' CFDD F04F'         	movff	postdec2,(c:pid_compute@out+2)
  3371  0376' D025               	goto	l72
  3372                           opt subtitle "HI-TECH Software Omniscient Code Generator (Lite mode) build 49521"
  3373                           
  3374  0378'                    l71:
  3375                           opt subtitle "HI-TECH Software Omniscient Code Generator (Lite mode) build 49521"
  3376  0378'                    l2133:
  3377                           opt subtitle "HI-TECH Software Omniscient Code Generator (Lite mode) build 49521"
  3378  0378' C04D' F000'        	movff	(c:pid_compute@out),(c:?___ftge)
  3379  037C' C04E' F001'        	movff	(c:pid_compute@out+1),(c:?___ftge+1)
  3380  0380' C04F' F002'        	movff	(c:pid_compute@out+2),(c:?___ftge+2)
  3381  0384' EE20 F00F          	lfsr	2,0Fh
  3382  0388' 502F'              	movf	((c:pid_compute@pid)),c,w
  3383  038A' 26D9               	addwf	fsr2l
  3384  038C' 5030'              	movf	((c:pid_compute@pid+1)),c,w
  3385  038E' 22DA               	addwfc	fsr2h
  3386  0390' CFDE F003'         	movff	postinc2,0+((c:?___ftge)+03h)
  3387  0394' CFDE F004'         	movff	postinc2,1+((c:?___ftge)+03h)
  3388  0398' CFDD F005'         	movff	postdec2,2+((c:?___ftge)+03h)
  3389  039C' EC00' F000'        	call	___ftge	;wreg free
  3390  03A0' B0D8               	btfsc	status,0
  3391  03A2' D001               	goto	u1331
  3392  03A4' D001               	goto	u1330
  3393  03A6'                    u1331:
  3394  03A6' D00D               	goto	l72
  3395  03A8'                    u1330:
  3396                           opt subtitle "HI-TECH Software Omniscient Code Generator (Lite mode) build 49521"
  3397                           
  3398  03A8'                    l2135:
  3399                           opt subtitle "HI-TECH Software Omniscient Code Generator (Lite mode) build 49521"
  3400  03A8' EE20 F00F          	lfsr	2,0Fh
  3401  03AC' 502F'              	movf	((c:pid_compute@pid)),c,w
  3402  03AE' 26D9               	addwf	fsr2l
  3403  03B0' 5030'              	movf	((c:pid_compute@pid+1)),c,w
  3404  03B2' 22DA               	addwfc	fsr2h
  3405  03B4' CFDE F04D'         	movff	postinc2,(c:pid_compute@out)
  3406  03B8' CFDE F04E'         	movff	postinc2,(c:pid_compute@out+1)
  3407  03BC' CFDD F04F'         	movff	postdec2,(c:pid_compute@out+2)
  3408  03C0' D000               	goto	l72
  3409                           opt subtitle "HI-TECH Software Omniscient Code Generator (Lite mode) build 49521"
  3410  03C2'                    l73:
  3411                           opt subtitle "HI-TECH Software Omniscient Code Generator (Lite mode) build 49521"
  3412                           
  3413  03C2'                    l72:
  3414                           opt subtitle "HI-TECH Software Omniscient Code Generator (Lite mode) build 49521"
  3415  03C2' EE20 F002          	lfsr	2,02h
  3416  03C6' 502F'              	movf	((c:pid_compute@pid)),c,w
  3417  03C8' 26D9               	addwf	fsr2l
  3418  03CA' 5030'              	movf	((c:pid_compute@pid+1)),c,w
  3419  03CC' 22DA               	addwfc	fsr2h
  3420  03CE' CFDE F031'         	movff	postinc2,??_pid_compute+0+0
  3421  03D2' CFDD F032'         	movff	postdec2,??_pid_compute+0+0+1
  3422  03D6' C031' FFD9         	movff	??_pid_compute+0+0,fsr2l
  3423  03DA' C032' FFDA         	movff	??_pid_compute+0+1,fsr2h
  3424  03DE' C04D' FFDE         	movff	(c:pid_compute@out),postinc2
  3425  03E2' C04E' FFDE         	movff	(c:pid_compute@out+1),postinc2
  3426  03E6' C04F' FFDD         	movff	(c:pid_compute@out+2),postdec2
  3427                           opt subtitle "HI-TECH Software Omniscient Code Generator (Lite mode) build 49521"
  3428                           
  3429  03EA' EE20 F018          	lfsr	2,018h
  3430  03EE' 502F'              	movf	((c:pid_compute@pid)),c,w
  3431  03F0' 26D9               	addwf	fsr2l
  3432  03F2' 5030'              	movf	((c:pid_compute@pid+1)),c,w
  3433  03F4' 22DA               	addwfc	fsr2h
  3434  03F6' C04A' FFDE         	movff	(c:pid_compute@in),postinc2
  3435  03FA' C04B' FFDE         	movff	(c:pid_compute@in+1),postinc2
  3436  03FE' C04C' FFDD         	movff	(c:pid_compute@in+2),postdec2
  3437                           opt subtitle "HI-TECH Software Omniscient Code Generator (Lite mode) build 49521"
  3438                           
  3439  0402' EE20 F01B          	lfsr	2,01Bh
  3440  0406' 502F'              	movf	((c:pid_compute@pid)),c,w
  3441  0408' 26D9               	addwf	fsr2l
  3442  040A' 5030'              	movf	((c:pid_compute@pid+1)),c,w
  3443  040C' 22DA               	addwfc	fsr2h
  3444  040E' C043' FFDE         	movff	(c:pid_compute@now),postinc2
  3445  0412' C044' FFDE         	movff	(c:pid_compute@now+1),postinc2
  3446  0416' C045' FFDE         	movff	(c:pid_compute@now+2),postinc2
  3447  041A' C046' FFDE         	movff	(c:pid_compute@now+3),postinc2
  3448  041E' D001               	goto	l66
  3449                           opt subtitle "HI-TECH Software Omniscient Code Generator (Lite mode) build 49521"
  3450                           
  3451  0420'                    l2137:
  3452                           opt subtitle "HI-TECH Software Omniscient Code Generator (Lite mode) build 49521"
  3453                           
  3454  0420' D000               	goto	l66
  3455                           opt subtitle "HI-TECH Software Omniscient Code Generator (Lite mode) build 49521"
  3456                           
  3457  0422'                    l67:
  3458                           opt subtitle "HI-TECH Software Omniscient Code Generator (Lite mode) build 49521"
  3459                           
  3460                           opt pagewidth 120
  3461                           
  3462                           	opt lm
  3463  0422'                    l66:
  3464  0422' 0012               	return
  3465                           opt subtitle "HI-TECH Software Omniscient Code Generator (Lite mode) build 49521"
  3466                           
  3467  0424'                    	__end_of_pid_compute:
  3468                           opt subtitle "HI-TECH Software Omniscient Code Generator (Lite mode) build 49521"
  3469                           
  3470                           opt pagewidth 120
  3471                           
  3472                           	opt lm
  3473                           
  3474                           	processor	18F2550
  3475                           porta	equ	0F80h
  3476                           portb	equ	0F81h
  3477                           portc	equ	0F82h
  3478                           portd	equ	0F83h
  3479                           porte	equ	0F84h
  3480                           lata	equ	0F89h
  3481                           latb	equ	0F8Ah
  3482                           latc	equ	0F8Bh
  3483                           latd	equ	0F8Ch
  3484                           late	equ	0F8Dh
  3485                           trisa	equ	0F92h
  3486                           trisb	equ	0F93h
  3487                           trisc	equ	0F94h
  3488                           trisd	equ	0F95h
  3489                           trise	equ	0F96h
  3490                           pie1	equ	0F9Dh
  3491                           pir1	equ	0F9Eh
  3492                           ipr1	equ	0F9Fh
  3493                           pie2	equ	0FA0h
  3494                           pir2	equ	0FA1h
  3495                           ipr2	equ	0FA2h
  3496                           t3con	equ	0FB1h
  3497                           tmr3l	equ	0FB2h
  3498                           tmr3h	equ	0FB3h
  3499                           ccp1con	equ	0FBDh
  3500                           ccpr1l	equ	0FBEh
  3501                           ccpr1h	equ	0FBFh
  3502                           adcon1	equ	0FC1h
  3503                           adcon0	equ	0FC2h
  3504  0000'                    __ptext5:
  3505                           opt subtitle "HI-TECH Software Omniscient Code Generator (Lite mode) build 49521"
  3506                           
  3507                           opt pagewidth 120
  3508                           
  3509  0000                     	__size_of_tick_get	equ	__end_of_tick_get-_tick_get
  3510                           opt subtitle "HI-TECH Software Omniscient Code Generator (Lite mode) build 49521"
  3511  0000'                    _tick_get:
  3512                           opt subtitle "HI-TECH Software Omniscient Code Generator (Lite mode) build 49521"
  3513                           
  3514                           opt pagewidth 120
  3515  0000'                    l1895:
  3516                           opt subtitle "HI-TECH Software Omniscient Code Generator (Lite mode) build 49521"
  3517  0000' EC00' F000'        	call	_tick_read_internal	;wreg free
  3518                           opt subtitle "HI-TECH Software Omniscient Code Generator (Lite mode) build 49521"
  3519                           
  3520  0004'                    l1897:
  3521                           opt subtitle "HI-TECH Software Omniscient Code Generator (Lite mode) build 49521"
  3522  0004' C000' F000'        	movff	0+(_tickbuffer),(c:?_tick_get)
  3523  0008' C001' F001'        	movff	1+(_tickbuffer),(c:?_tick_get+1)
  3524  000C' C002' F002'        	movff	2+(_tickbuffer),(c:?_tick_get+2)
  3525  0010' C003' F003'        	movff	3+(_tickbuffer),(c:?_tick_get+3)
  3526  0014' D000               	goto	l42
  3527                           opt subtitle "HI-TECH Software Omniscient Code Generator (Lite mode) build 49521"
  3528  0016'                    l1899:
  3529                           opt subtitle "HI-TECH Software Omniscient Code Generator (Lite mode) build 49521"
  3530                           
  3531  0016'                    l42:
  3532  0016' 0012               	return
  3533                           opt subtitle "HI-TECH Software Omniscient Code Generator (Lite mode) build 49521"
  3534                           
  3535  0018'                    	__end_of_tick_get:
  3536                           opt subtitle "HI-TECH Software Omniscient Code Generator (Lite mode) build 49521"
  3537                           
  3538                           opt pagewidth 120
  3539                           
  3540                           	opt lm
  3541                           
  3542                           	processor	18F2550
  3543                           porta	equ	0F80h
  3544                           portb	equ	0F81h
  3545                           portc	equ	0F82h
  3546                           portd	equ	0F83h
  3547                           porte	equ	0F84h
  3548                           lata	equ	0F89h
  3549                           latb	equ	0F8Ah
  3550                           latc	equ	0F8Bh
  3551                           latd	equ	0F8Ch
  3552                           late	equ	0F8Dh
  3553                           trisa	equ	0F92h
  3554                           trisb	equ	0F93h
  3555                           trisc	equ	0F94h
  3556                           trisd	equ	0F95h
  3557                           trise	equ	0F96h
  3558                           pie1	equ	0F9Dh
  3559                           pir1	equ	0F9Eh
  3560                           ipr1	equ	0F9Fh
  3561                           pie2	equ	0FA0h
  3562                           pir2	equ	0FA1h
  3563                           ipr2	equ	0FA2h
  3564                           t3con	equ	0FB1h
  3565                           tmr3l	equ	0FB2h
  3566                           tmr3h	equ	0FB3h
  3567                           ccp1con	equ	0FBDh
  3568                           ccpr1l	equ	0FBEh
  3569  0000'                    __ptext6:
  3570                           opt subtitle "HI-TECH Software Omniscient Code Generator (Lite mode) build 49521"
  3571                           
  3572                           opt pagewidth 120
  3573                           
  3574  0000                     	__size_of_tick_read_internal	equ	__end_of_tick_read_internal-_tick_read_internal
  3575                           opt subtitle "HI-TECH Software Omniscient Code Generator (Lite mode) build 49521"
  3576  0000'                    _tick_read_internal:
  3577                           opt subtitle "HI-TECH Software Omniscient Code Generator (Lite mode) build 49521"
  3578                           
  3579                           opt pagewidth 120
  3580                           
  3581  0000'                    l49:
  3582                           opt subtitle "HI-TECH Software Omniscient Code Generator (Lite mode) build 49521"
  3583                           
  3584  0000' 8AF2               	bsf	((c:4082)),c,5	;volatile
  3585                           opt subtitle "HI-TECH Software Omniscient Code Generator (Lite mode) build 49521"
  3586                           
  3587  0002' F000               nop ;# 
  3588                           opt subtitle "HI-TECH Software Omniscient Code Generator (Lite mode) build 49521"
  3589                           
  3590                           opt pagewidth 120
  3591  0004' 9AF2               	bcf	((c:4082)),c,5	;volatile
  3592                           opt subtitle "HI-TECH Software Omniscient Code Generator (Lite mode) build 49521"
  3593                           
  3594  0006' CFD6 F000'         	movff	(c:4054),(_tickbuffer)	;volatile
  3595                           opt subtitle "HI-TECH Software Omniscient Code Generator (Lite mode) build 49521"
  3596                           
  3597  000A' CFD7 F001'         	movff	(c:4055),0+(_tickbuffer+01h)	;volatile
  3598                           opt subtitle "HI-TECH Software Omniscient Code Generator (Lite mode) build 49521"
  3599                           
  3600  000E' C006' F002'        	movff	(_tickcnt),0+(_tickbuffer+02h)	;volatile
  3601  0012' C007' F003'        	movff	(_tickcnt+1),1+(_tickbuffer+02h)	;volatile
  3602  0016' C008' F004'        	movff	(_tickcnt+2),2+(_tickbuffer+02h)	;volatile
  3603  001A' C009' F005'        	movff	(_tickcnt+3),3+(_tickbuffer+02h)	;volatile
  3604                           opt subtitle "HI-TECH Software Omniscient Code Generator (Lite mode) build 49521"
  3605                           
  3606                           opt pagewidth 120
  3607  001E' B4F2               	btfsc	((c:4082)),c,2	;volatile
  3608  0020' D001               	goto	u701
  3609  0022' D001               	goto	u700
  3610  0024'                    u701:
  3611  0024' D7ED               	goto	l49
  3612  0026'                    u700:
  3613                           opt subtitle "HI-TECH Software Omniscient Code Generator (Lite mode) build 49521"
  3614  0026'                    l50:
  3615                           opt subtitle "HI-TECH Software Omniscient Code Generator (Lite mode) build 49521"
  3616                           
  3617  0026' 8AF2               	bsf	((c:4082)),c,5	;volatile
  3618                           opt subtitle "HI-TECH Software Omniscient Code Generator (Lite mode) build 49521"
  3619                           
  3620  0028'                    l51:
  3621  0028' 0012               	return
  3622                           opt subtitle "HI-TECH Software Omniscient Code Generator (Lite mode) build 49521"
  3623                           
  3624  002A'                    	__end_of_tick_read_internal:
  3625                           opt subtitle "HI-TECH Software Omniscient Code Generator (Lite mode) build 49521"
  3626                           
  3627                           opt pagewidth 120
  3628                           
  3629                           	opt lm
  3630                           
  3631                           	processor	18F2550
  3632                           porta	equ	0F80h
  3633                           portb	equ	0F81h
  3634                           portc	equ	0F82h
  3635                           portd	equ	0F83h
  3636                           porte	equ	0F84h
  3637                           lata	equ	0F89h
  3638                           latb	equ	0F8Ah
  3639                           latc	equ	0F8Bh
  3640                           latd	equ	0F8Ch
  3641                           late	equ	0F8Dh
  3642                           trisa	equ	0F92h
  3643                           trisb	equ	0F93h
  3644                           trisc	equ	0F94h
  3645                           trisd	equ	0F95h
  3646                           trise	equ	0F96h
  3647                           pie1	equ	0F9Dh
  3648                           pir1	equ	0F9Eh
  3649                           ipr1	equ	0F9Fh
  3650                           pie2	equ	0FA0h
  3651                           pir2	equ	0FA1h
  3652                           ipr2	equ	0FA2h
  3653                           t3con	equ	0FB1h
  3654                           tmr3l	equ	0FB2h
  3655                           tmr3h	equ	0FB3h
  3656                           ccp1con	equ	0FBDh
  3657                           ccpr1l	equ	0FBEh
  3658                           ccpr1h	equ	0FBFh
  3659                           adcon1	equ	0FC1h
  3660                           adcon0	equ	0FC2h
  3661  0000'                    __ptext7:
  3662                           opt subtitle "HI-TECH Software Omniscient Code Generator (Lite mode) build 49521"
  3663                           
  3664                           opt pagewidth 120
  3665                           
  3666  0000                     	__size_of_pid_direction	equ	__end_of_pid_direction-_pid_direction
  3667                           opt subtitle "HI-TECH Software Omniscient Code Generator (Lite mode) build 49521"
  3668  0000'                    _pid_direction:
  3669                           opt subtitle "HI-TECH Software Omniscient Code Generator (Lite mode) build 49521"
  3670                           
  3671                           opt pagewidth 120
  3672  0000'                    l1997:
  3673                           opt subtitle "HI-TECH Software Omniscient Code Generator (Lite mode) build 49521"
  3674  0000' EE20 F023          	lfsr	2,023h
  3675  0004' 500B'              	movf	((c:pid_direction@pid)),c,w
  3676  0006' 26D9               	addwf	fsr2l
  3677  0008' 500C'              	movf	((c:pid_direction@pid+1)),c,w
  3678  000A' 22DA               	addwfc	fsr2h
  3679  000C' 50DF               	movf	indf2,w
  3680  000E' B4D8               	btfsc	status,2
  3681  0010' D001               	goto	u1151
  3682  0012' D001               	goto	u1150
  3683  0014'                    u1151:
  3684  0014' D05E               	goto	l2003
  3685  0016'                    u1150:
  3686                           opt subtitle "HI-TECH Software Omniscient Code Generator (Lite mode) build 49521"
  3687  0016'                    l1999:
  3688  0016' EE20 F024          	lfsr	2,024h
  3689  001A' 500B'              	movf	((c:pid_direction@pid)),c,w
  3690  001C' 26D9               	addwf	fsr2l
  3691  001E' 500C'              	movf	((c:pid_direction@pid+1)),c,w
  3692  0020' 22DA               	addwfc	fsr2h
  3693  0022' 50DF               	movf	indf2,w
  3694  0024' 180D'              	xorwf	((c:pid_direction@direction)),c,w
  3695  0026' B4D8               	btfsc	status,2
  3696  0028' D001               	goto	u1161
  3697  002A' D001               	goto	u1160
  3698  002C'                    u1161:
  3699  002C' D052               	goto	l2003
  3700  002E'                    u1160:
  3701                           opt subtitle "HI-TECH Software Omniscient Code Generator (Lite mode) build 49521"
  3702                           
  3703  002E'                    l2001:
  3704                           opt subtitle "HI-TECH Software Omniscient Code Generator (Lite mode) build 49521"
  3705  002E' EE20 F006          	lfsr	2,06h
  3706  0032' 500B'              	movf	((c:pid_direction@pid)),c,w
  3707  0034' 26D9               	addwf	fsr2l
  3708  0036' 500C'              	movf	((c:pid_direction@pid+1)),c,w
  3709  0038' 22DA               	addwfc	fsr2h
  3710  003A' CFDE F008'         	movff	postinc2,(c:?___ftneg)
  3711  003E' CFDE F009'         	movff	postinc2,(c:?___ftneg+1)
  3712  0042' CFDD F00A'         	movff	postdec2,(c:?___ftneg+2)
  3713  0046' EC00' F000'        	call	___ftneg	;wreg free
  3714  004A' EE20 F006          	lfsr	2,06h
  3715  004E' 500B'              	movf	((c:pid_direction@pid)),c,w
  3716  0050' 26D9               	addwf	fsr2l
  3717  0052' 500C'              	movf	((c:pid_direction@pid+1)),c,w
  3718  0054' 22DA               	addwfc	fsr2h
  3719  0056' C008' FFDE         	movff	0+?___ftneg,postinc2
  3720  005A' C009' FFDE         	movff	1+?___ftneg,postinc2
  3721  005E' C00A' FFDD         	movff	2+?___ftneg,postdec2
  3722  0062' 52DD               	movf	postdec2
  3723                           opt subtitle "HI-TECH Software Omniscient Code Generator (Lite mode) build 49521"
  3724                           
  3725  0064' EE20 F009          	lfsr	2,09h
  3726  0068' 500B'              	movf	((c:pid_direction@pid)),c,w
  3727  006A' 26D9               	addwf	fsr2l
  3728  006C' 500C'              	movf	((c:pid_direction@pid+1)),c,w
  3729  006E' 22DA               	addwfc	fsr2h
  3730  0070' CFDE F008'         	movff	postinc2,(c:?___ftneg)
  3731  0074' CFDE F009'         	movff	postinc2,(c:?___ftneg+1)
  3732  0078' CFDD F00A'         	movff	postdec2,(c:?___ftneg+2)
  3733  007C' EC00' F000'        	call	___ftneg	;wreg free
  3734  0080' EE20 F009          	lfsr	2,09h
  3735  0084' 500B'              	movf	((c:pid_direction@pid)),c,w
  3736  0086' 26D9               	addwf	fsr2l
  3737  0088' 500C'              	movf	((c:pid_direction@pid+1)),c,w
  3738  008A' 22DA               	addwfc	fsr2h
  3739  008C' C008' FFDE         	movff	0+?___ftneg,postinc2
  3740  0090' C009' FFDE         	movff	1+?___ftneg,postinc2
  3741  0094' C00A' FFDD         	movff	2+?___ftneg,postdec2
  3742  0098' 52DD               	movf	postdec2
  3743                           opt subtitle "HI-TECH Software Omniscient Code Generator (Lite mode) build 49521"
  3744                           
  3745  009A' EE20 F00C          	lfsr	2,0Ch
  3746  009E' 500B'              	movf	((c:pid_direction@pid)),c,w
  3747  00A0' 26D9               	addwf	fsr2l
  3748  00A2' 500C'              	movf	((c:pid_direction@pid+1)),c,w
  3749  00A4' 22DA               	addwfc	fsr2h
  3750  00A6' CFDE F008'         	movff	postinc2,(c:?___ftneg)
  3751  00AA' CFDE F009'         	movff	postinc2,(c:?___ftneg+1)
  3752  00AE' CFDD F00A'         	movff	postdec2,(c:?___ftneg+2)
  3753  00B2' EC00' F000'        	call	___ftneg	;wreg free
  3754  00B6' EE20 F00C          	lfsr	2,0Ch
  3755  00BA' 500B'              	movf	((c:pid_direction@pid)),c,w
  3756  00BC' 26D9               	addwf	fsr2l
  3757  00BE' 500C'              	movf	((c:pid_direction@pid+1)),c,w
  3758  00C0' 22DA               	addwfc	fsr2h
  3759  00C2' C008' FFDE         	movff	0+?___ftneg,postinc2
  3760  00C6' C009' FFDE         	movff	1+?___ftneg,postinc2
  3761  00CA' C00A' FFDD         	movff	2+?___ftneg,postdec2
  3762  00CE' 52DD               	movf	postdec2
  3763  00D0' D000               	goto	l2003
  3764                           opt subtitle "HI-TECH Software Omniscient Code Generator (Lite mode) build 49521"
  3765                           
  3766  00D2'                    l105:
  3767                           opt subtitle "HI-TECH Software Omniscient Code Generator (Lite mode) build 49521"
  3768                           
  3769  00D2'                    l2003:
  3770                           opt subtitle "HI-TECH Software Omniscient Code Generator (Lite mode) build 49521"
  3771                           
  3772  00D2' EE20 F024          	lfsr	2,024h
  3773  00D6' 500B'              	movf	((c:pid_direction@pid)),c,w
  3774  00D8' 26D9               	addwf	fsr2l
  3775  00DA' 500C'              	movf	((c:pid_direction@pid+1)),c,w
  3776  00DC' 22DA               	addwfc	fsr2h
  3777  00DE' C00D' FFDF         	movff	(c:pid_direction@direction),indf2
  3778                           opt subtitle "HI-TECH Software Omniscient Code Generator (Lite mode) build 49521"
  3779                           
  3780                           opt pagewidth 120
  3781  00E2'                    l106:
  3782  00E2' 0012               	return
  3783                           opt subtitle "HI-TECH Software Omniscient Code Generator (Lite mode) build 49521"
  3784                           
  3785  00E4'                    	__end_of_pid_direction:
  3786                           opt subtitle "HI-TECH Software Omniscient Code Generator (Lite mode) build 49521"
  3787                           
  3788                           opt pagewidth 120
  3789                           
  3790                           	opt lm
  3791                           
  3792                           	processor	18F2550
  3793                           porta	equ	0F80h
  3794                           portb	equ	0F81h
  3795                           portc	equ	0F82h
  3796                           portd	equ	0F83h
  3797                           porte	equ	0F84h
  3798                           lata	equ	0F89h
  3799                           latb	equ	0F8Ah
  3800                           latc	equ	0F8Bh
  3801                           latd	equ	0F8Ch
  3802                           late	equ	0F8Dh
  3803                           trisa	equ	0F92h
  3804                           trisb	equ	0F93h
  3805                           trisc	equ	0F94h
  3806                           trisd	equ	0F95h
  3807                           trise	equ	0F96h
  3808                           pie1	equ	0F9Dh
  3809                           pir1	equ	0F9Eh
  3810                           ipr1	equ	0F9Fh
  3811                           pie2	equ	0FA0h
  3812                           pir2	equ	0FA1h
  3813                           ipr2	equ	0FA2h
  3814                           t3con	equ	0FB1h
  3815                           tmr3l	equ	0FB2h
  3816                           tmr3h	equ	0FB3h
  3817                           ccp1con	equ	0FBDh
  3818                           ccpr1l	equ	0FBEh
  3819                           ccpr1h	equ	0FBFh
  3820                           adcon1	equ	0FC1h
  3821                           adcon0	equ	0FC2h
  3822                           adresl	equ	0FC3h
  3823                           adresh	equ	0FC4h
  3824                           sspcon2	equ	0FC5h
  3825                           sspcon1	equ	0FC6h
  3826                           sspstat	equ	0FC7h
  3827  0000'                    __ptext8:
  3828                           opt subtitle "HI-TECH Software Omniscient Code Generator (Lite mode) build 49521"
  3829                           
  3830                           opt pagewidth 120
  3831                           
  3832  0000                     	__size_of_pid_tune	equ	__end_of_pid_tune-_pid_tune
  3833                           opt subtitle "HI-TECH Software Omniscient Code Generator (Lite mode) build 49521"
  3834  0000'                    _pid_tune:
  3835                           opt subtitle "HI-TECH Software Omniscient Code Generator (Lite mode) build 49521"
  3836                           
  3837                           opt pagewidth 120
  3838  0000'                    l2139:
  3839                           opt subtitle "HI-TECH Software Omniscient Code Generator (Lite mode) build 49521"
  3840  0000' 5026'              	movf	((c:pid_tune@kp+2)),c,w
  3841  0002' 0A80               	xorlw	80h
  3842  0004' 0F80               	addlw	-(low highword(float24(0.0000000000000000)))^80h
  3843                           opt subtitle "HI-TECH Software Omniscient Code Generator (Lite mode) build 49521"
  3844  0006' E105               	bnz	u1345
  3845  0008' 0E00               	movlw	high(float24(0.0000000000000000))
  3846  000A' 5C25'              	subwf	((c:pid_tune@kp+1)),c,w
  3847  000C' E102               	bnz	u1345
  3848  000E' 0E00               	movlw	low(float24(0.0000000000000000))
  3849  0010' 5C24'              	subwf	((c:pid_tune@kp)),c,w
  3850  0012'                    u1345:
  3851  0012' A0D8               	btfss	status,0
  3852  0014' D001               	goto	u1341
  3853  0016' D001               	goto	u1340
  3854  0018'                    u1341:
  3855  0018' D0DF               	goto	l79
  3856  001A'                    u1340:
  3857                           opt subtitle "HI-TECH Software Omniscient Code Generator (Lite mode) build 49521"
  3858  001A'                    l2141:
  3859  001A' 5029'              	movf	((c:pid_tune@ki+2)),c,w
  3860  001C' 0A80               	xorlw	80h
  3861  001E' 0F80               	addlw	-(low highword(float24(0.0000000000000000)))^80h
  3862                           opt subtitle "HI-TECH Software Omniscient Code Generator (Lite mode) build 49521"
  3863  0020' E105               	bnz	u1355
  3864  0022' 0E00               	movlw	high(float24(0.0000000000000000))
  3865  0024' 5C28'              	subwf	((c:pid_tune@ki+1)),c,w
  3866  0026' E102               	bnz	u1355
  3867  0028' 0E00               	movlw	low(float24(0.0000000000000000))
  3868  002A' 5C27'              	subwf	((c:pid_tune@ki)),c,w
  3869  002C'                    u1355:
  3870  002C' A0D8               	btfss	status,0
  3871  002E' D001               	goto	u1351
  3872  0030' D001               	goto	u1350
  3873  0032'                    u1351:
  3874  0032' D0D2               	goto	l79
  3875  0034'                    u1350:
  3876                           opt subtitle "HI-TECH Software Omniscient Code Generator (Lite mode) build 49521"
  3877  0034'                    l2143:
  3878  0034' 502C'              	movf	((c:pid_tune@kd+2)),c,w
  3879  0036' 0A80               	xorlw	80h
  3880  0038' 0F80               	addlw	-(low highword(float24(0.0000000000000000)))^80h
  3881                           opt subtitle "HI-TECH Software Omniscient Code Generator (Lite mode) build 49521"
  3882  003A' E105               	bnz	u1365
  3883  003C' 0E00               	movlw	high(float24(0.0000000000000000))
  3884  003E' 5C2B'              	subwf	((c:pid_tune@kd+1)),c,w
  3885  0040' E102               	bnz	u1365
  3886  0042' 0E00               	movlw	low(float24(0.0000000000000000))
  3887  0044' 5C2A'              	subwf	((c:pid_tune@kd)),c,w
  3888  0046'                    u1365:
  3889  0046' B0D8               	btfsc	status,0
  3890  0048' D001               	goto	u1361
  3891  004A' D001               	goto	u1360
  3892  004C'                    u1361:
  3893  004C' D002               	goto	l2145
  3894  004E'                    u1360:
  3895  004E' D0C4               	goto	l79
  3896                           opt subtitle "HI-TECH Software Omniscient Code Generator (Lite mode) build 49521"
  3897  0050'                    l78:
  3898                           opt subtitle "HI-TECH Software Omniscient Code Generator (Lite mode) build 49521"
  3899                           
  3900  0050' D0C3               	goto	l79
  3901                           opt subtitle "HI-TECH Software Omniscient Code Generator (Lite mode) build 49521"
  3902  0052'                    l76:
  3903                           opt subtitle "HI-TECH Software Omniscient Code Generator (Lite mode) build 49521"
  3904                           
  3905  0052'                    l2145:
  3906                           opt subtitle "HI-TECH Software Omniscient Code Generator (Lite mode) build 49521"
  3907  0052' EE20 F01F          	lfsr	2,01Fh
  3908  0056' 5022'              	movf	((c:pid_tune@pid)),c,w
  3909  0058' 26D9               	addwf	fsr2l
  3910  005A' 5023'              	movf	((c:pid_tune@pid+1)),c,w
  3911  005C' 22DA               	addwfc	fsr2h
  3912  005E' CFDE F008'         	movff	postinc2,(c:?___lltoft)
  3913  0062' CFDE F009'         	movff	postinc2,(c:?___lltoft+1)
  3914  0066' CFDE F00A'         	movff	postinc2,(c:?___lltoft+2)
  3915  006A' CFDE F00B'         	movff	postinc2,(c:?___lltoft+3)
  3916  006E' EC00' F000'        	call	___lltoft	;wreg free
  3917  0072' C008' F011'        	movff	0+?___lltoft,(c:?___ftdiv)
  3918  0076' C009' F012'        	movff	1+?___lltoft,(c:?___ftdiv+1)
  3919  007A' C00A' F013'        	movff	2+?___lltoft,(c:?___ftdiv+2)
  3920  007E' 0E1B               	movlw	low(float24(46875.000000000000))
  3921  0080' 6E14'              	movwf	(0+((c:?___ftdiv)+03h)),c
  3922  0082' 0E37               	movlw	high(float24(46875.000000000000))
  3923  0084' 6E15'              	movwf	(1+((c:?___ftdiv)+03h)),c
  3924  0086' 0E47               	movlw	low highword(float24(46875.000000000000))
  3925  0088' 6E16'              	movwf	(2+((c:?___ftdiv)+03h)),c
  3926                           opt subtitle "HI-TECH Software Omniscient Code Generator (Lite mode) build 49521"
  3927  008A' EC00' F000'        	call	___ftdiv	;wreg free
  3928  008E' C011' F02D'        	movff	0+?___ftdiv,(c:pid_tune@ssec)
  3929  0092' C012' F02E'        	movff	1+?___ftdiv,(c:pid_tune@ssec+1)
  3930  0096' C013' F02F'        	movff	2+?___ftdiv,(c:pid_tune@ssec+2)
  3931                           opt subtitle "HI-TECH Software Omniscient Code Generator (Lite mode) build 49521"
  3932                           
  3933  009A'                    l2147:
  3934                           opt subtitle "HI-TECH Software Omniscient Code Generator (Lite mode) build 49521"
  3935  009A' EE20 F006          	lfsr	2,06h
  3936  009E' 5022'              	movf	((c:pid_tune@pid)),c,w
  3937  00A0' 26D9               	addwf	fsr2l
  3938  00A2' 5023'              	movf	((c:pid_tune@pid+1)),c,w
  3939  00A4' 22DA               	addwfc	fsr2h
  3940  00A6' C024' FFDE         	movff	(c:pid_tune@kp),postinc2
  3941  00AA' C025' FFDE         	movff	(c:pid_tune@kp+1),postinc2
  3942  00AE' C026' FFDD         	movff	(c:pid_tune@kp+2),postdec2
  3943                           opt subtitle "HI-TECH Software Omniscient Code Generator (Lite mode) build 49521"
  3944                           
  3945  00B2'                    l2149:
  3946                           opt subtitle "HI-TECH Software Omniscient Code Generator (Lite mode) build 49521"
  3947  00B2' C027' F00B'        	movff	(c:pid_tune@ki),(c:?___ftmul)
  3948  00B6' C028' F00C'        	movff	(c:pid_tune@ki+1),(c:?___ftmul+1)
  3949  00BA' C029' F00D'        	movff	(c:pid_tune@ki+2),(c:?___ftmul+2)
  3950  00BE' C02D' F00E'        	movff	(c:pid_tune@ssec),0+((c:?___ftmul)+03h)
  3951  00C2' C02E' F00F'        	movff	(c:pid_tune@ssec+1),1+((c:?___ftmul)+03h)
  3952  00C6' C02F' F010'        	movff	(c:pid_tune@ssec+2),2+((c:?___ftmul)+03h)
  3953  00CA' EC00' F000'        	call	___ftmul	;wreg free
  3954  00CE' EE20 F009          	lfsr	2,09h
  3955  00D2' 5022'              	movf	((c:pid_tune@pid)),c,w
  3956  00D4' 26D9               	addwf	fsr2l
  3957  00D6' 5023'              	movf	((c:pid_tune@pid+1)),c,w
  3958  00D8' 22DA               	addwfc	fsr2h
  3959  00DA' C00B' FFDE         	movff	0+?___ftmul,postinc2
  3960  00DE' C00C' FFDE         	movff	1+?___ftmul,postinc2
  3961  00E2' C00D' FFDD         	movff	2+?___ftmul,postdec2
  3962  00E6' 52DD               	movf	postdec2
  3963                           opt subtitle "HI-TECH Software Omniscient Code Generator (Lite mode) build 49521"
  3964                           
  3965  00E8'                    l2151:
  3966                           opt subtitle "HI-TECH Software Omniscient Code Generator (Lite mode) build 49521"
  3967  00E8' C02A' F011'        	movff	(c:pid_tune@kd),(c:?___ftdiv)
  3968  00EC' C02B' F012'        	movff	(c:pid_tune@kd+1),(c:?___ftdiv+1)
  3969  00F0' C02C' F013'        	movff	(c:pid_tune@kd+2),(c:?___ftdiv+2)
  3970  00F4' C02D' F014'        	movff	(c:pid_tune@ssec),0+((c:?___ftdiv)+03h)
  3971  00F8' C02E' F015'        	movff	(c:pid_tune@ssec+1),1+((c:?___ftdiv)+03h)
  3972  00FC' C02F' F016'        	movff	(c:pid_tune@ssec+2),2+((c:?___ftdiv)+03h)
  3973  0100' EC00' F000'        	call	___ftdiv	;wreg free
  3974  0104' EE20 F00C          	lfsr	2,0Ch
  3975  0108' 5022'              	movf	((c:pid_tune@pid)),c,w
  3976  010A' 26D9               	addwf	fsr2l
  3977  010C' 5023'              	movf	((c:pid_tune@pid+1)),c,w
  3978  010E' 22DA               	addwfc	fsr2h
  3979  0110' C011' FFDE         	movff	0+?___ftdiv,postinc2
  3980  0114' C012' FFDE         	movff	1+?___ftdiv,postinc2
  3981  0118' C013' FFDD         	movff	2+?___ftdiv,postdec2
  3982  011C' 52DD               	movf	postdec2
  3983                           opt subtitle "HI-TECH Software Omniscient Code Generator (Lite mode) build 49521"
  3984                           
  3985  011E'                    l2153:
  3986                           opt subtitle "HI-TECH Software Omniscient Code Generator (Lite mode) build 49521"
  3987  011E' EE20 F024          	lfsr	2,024h
  3988  0122' 5022'              	movf	((c:pid_tune@pid)),c,w
  3989  0124' 26D9               	addwf	fsr2l
  3990  0126' 5023'              	movf	((c:pid_tune@pid+1)),c,w
  3991  0128' 22DA               	addwfc	fsr2h
  3992  012A' 0E01               	movlw	(01h)&0ffh
  3993  012C' 62DF               	cpfseq	indf2
  3994  012E' D001               	goto	u1371
  3995  0130' D001               	goto	u1370
  3996  0132'                    u1371:
  3997  0132' D052               	goto	l79
  3998  0134'                    u1370:
  3999                           opt subtitle "HI-TECH Software Omniscient Code Generator (Lite mode) build 49521"
  4000                           
  4001  0134'                    l2155:
  4002                           opt subtitle "HI-TECH Software Omniscient Code Generator (Lite mode) build 49521"
  4003  0134' EE20 F006          	lfsr	2,06h
  4004  0138' 5022'              	movf	((c:pid_tune@pid)),c,w
  4005  013A' 26D9               	addwf	fsr2l
  4006  013C' 5023'              	movf	((c:pid_tune@pid+1)),c,w
  4007  013E' 22DA               	addwfc	fsr2h
  4008  0140' CFDE F008'         	movff	postinc2,(c:?___ftneg)
  4009  0144' CFDE F009'         	movff	postinc2,(c:?___ftneg+1)
  4010  0148' CFDD F00A'         	movff	postdec2,(c:?___ftneg+2)
  4011  014C' EC00' F000'        	call	___ftneg	;wreg free
  4012  0150' EE20 F006          	lfsr	2,06h
  4013  0154' 5022'              	movf	((c:pid_tune@pid)),c,w
  4014  0156' 26D9               	addwf	fsr2l
  4015  0158' 5023'              	movf	((c:pid_tune@pid+1)),c,w
  4016  015A' 22DA               	addwfc	fsr2h
  4017  015C' C008' FFDE         	movff	0+?___ftneg,postinc2
  4018  0160' C009' FFDE         	movff	1+?___ftneg,postinc2
  4019  0164' C00A' FFDD         	movff	2+?___ftneg,postdec2
  4020  0168' 52DD               	movf	postdec2
  4021                           opt subtitle "HI-TECH Software Omniscient Code Generator (Lite mode) build 49521"
  4022                           
  4023  016A' EE20 F009          	lfsr	2,09h
  4024  016E' 5022'              	movf	((c:pid_tune@pid)),c,w
  4025  0170' 26D9               	addwf	fsr2l
  4026  0172' 5023'              	movf	((c:pid_tune@pid+1)),c,w
  4027  0174' 22DA               	addwfc	fsr2h
  4028  0176' CFDE F008'         	movff	postinc2,(c:?___ftneg)
  4029  017A' CFDE F009'         	movff	postinc2,(c:?___ftneg+1)
  4030  017E' CFDD F00A'         	movff	postdec2,(c:?___ftneg+2)
  4031  0182' EC00' F000'        	call	___ftneg	;wreg free
  4032  0186' EE20 F009          	lfsr	2,09h
  4033  018A' 5022'              	movf	((c:pid_tune@pid)),c,w
  4034  018C' 26D9               	addwf	fsr2l
  4035  018E' 5023'              	movf	((c:pid_tune@pid+1)),c,w
  4036  0190' 22DA               	addwfc	fsr2h
  4037  0192' C008' FFDE         	movff	0+?___ftneg,postinc2
  4038  0196' C009' FFDE         	movff	1+?___ftneg,postinc2
  4039  019A' C00A' FFDD         	movff	2+?___ftneg,postdec2
  4040  019E' 52DD               	movf	postdec2
  4041                           opt subtitle "HI-TECH Software Omniscient Code Generator (Lite mode) build 49521"
  4042                           
  4043  01A0' EE20 F00C          	lfsr	2,0Ch
  4044  01A4' 5022'              	movf	((c:pid_tune@pid)),c,w
  4045  01A6' 26D9               	addwf	fsr2l
  4046  01A8' 5023'              	movf	((c:pid_tune@pid+1)),c,w
  4047  01AA' 22DA               	addwfc	fsr2h
  4048  01AC' CFDE F008'         	movff	postinc2,(c:?___ftneg)
  4049  01B0' CFDE F009'         	movff	postinc2,(c:?___ftneg+1)
  4050  01B4' CFDD F00A'         	movff	postdec2,(c:?___ftneg+2)
  4051  01B8' EC00' F000'        	call	___ftneg	;wreg free
  4052  01BC' EE20 F00C          	lfsr	2,0Ch
  4053  01C0' 5022'              	movf	((c:pid_tune@pid)),c,w
  4054  01C2' 26D9               	addwf	fsr2l
  4055  01C4' 5023'              	movf	((c:pid_tune@pid+1)),c,w
  4056  01C6' 22DA               	addwfc	fsr2h
  4057  01C8' C008' FFDE         	movff	0+?___ftneg,postinc2
  4058  01CC' C009' FFDE         	movff	1+?___ftneg,postinc2
  4059  01D0' C00A' FFDD         	movff	2+?___ftneg,postdec2
  4060  01D4' 52DD               	movf	postdec2
  4061  01D6' D000               	goto	l79
  4062                           opt subtitle "HI-TECH Software Omniscient Code Generator (Lite mode) build 49521"
  4063                           
  4064  01D8'                    l80:
  4065                           opt subtitle "HI-TECH Software Omniscient Code Generator (Lite mode) build 49521"
  4066                           
  4067  01D8'                    l79:
  4068  01D8' 0012               	return
  4069                           opt subtitle "HI-TECH Software Omniscient Code Generator (Lite mode) build 49521"
  4070                           
  4071  01DA'                    	__end_of_pid_tune:
  4072                           opt subtitle "HI-TECH Software Omniscient Code Generator (Lite mode) build 49521"
  4073                           
  4074                           opt pagewidth 120
  4075                           
  4076                           	opt lm
  4077                           
  4078                           	processor	18F2550
  4079                           porta	equ	0F80h
  4080                           portb	equ	0F81h
  4081                           portc	equ	0F82h
  4082                           portd	equ	0F83h
  4083                           porte	equ	0F84h
  4084                           lata	equ	0F89h
  4085                           latb	equ	0F8Ah
  4086                           latc	equ	0F8Bh
  4087                           latd	equ	0F8Ch
  4088                           late	equ	0F8Dh
  4089                           trisa	equ	0F92h
  4090                           trisb	equ	0F93h
  4091                           trisc	equ	0F94h
  4092                           trisd	equ	0F95h
  4093                           trise	equ	0F96h
  4094                           pie1	equ	0F9Dh
  4095                           pir1	equ	0F9Eh
  4096                           ipr1	equ	0F9Fh
  4097                           pie2	equ	0FA0h
  4098                           pir2	equ	0FA1h
  4099                           ipr2	equ	0FA2h
  4100                           t3con	equ	0FB1h
  4101                           tmr3l	equ	0FB2h
  4102                           tmr3h	equ	0FB3h
  4103                           ccp1con	equ	0FBDh
  4104                           ccpr1l	equ	0FBEh
  4105                           ccpr1h	equ	0FBFh
  4106  0000'                    __ptext9:
  4107                           opt subtitle "HI-TECH Software Omniscient Code Generator (Lite mode) build 49521"
  4108                           
  4109                           opt pagewidth 120
  4110                           
  4111  0000                     	__size_of___awtoft	equ	__end_of___awtoft-___awtoft
  4112                           opt subtitle "HI-TECH Software Omniscient Code Generator (Lite mode) build 49521"
  4113  0000'                    ___awtoft:
  4114                           opt subtitle "HI-TECH Software Omniscient Code Generator (Lite mode) build 49521"
  4115                           
  4116                           opt pagewidth 120
  4117  0000'                    l1901:
  4118  0000' 6E00'              	movwf	(??___awtoft+0+0)&0ffh,c
  4119  0002' 0E00               	movlw	low(0)
  4120  0004' 6E0C'              	movwf	((c:___awtoft@sign)),c
  4121  0006' 5000'              	movf	(??___awtoft+0+0)&0ffh,c,w
  4122                           opt subtitle "HI-TECH Software Omniscient Code Generator (Lite mode) build 49521"
  4123                           
  4124  0008'                    l1903:
  4125  0008' AE09'              	btfss	((c:___awtoft@c+1)),c,7
  4126  000A' D001               	goto	u911
  4127  000C' D001               	goto	u910
  4128  000E'                    u911:
  4129  000E' D009               	goto	l1909
  4130  0010'                    u910:
  4131                           opt subtitle "HI-TECH Software Omniscient Code Generator (Lite mode) build 49521"
  4132                           
  4133  0010'                    l1905:
  4134  0010' 6C08'              	negf	((c:___awtoft@c)),c
  4135  0012' 1E09'              	comf	((c:___awtoft@c+1)),c
  4136  0014' B0D8               	btfsc	status,0
  4137  0016' 2A09'              	incf	((c:___awtoft@c+1)),c
  4138                           opt subtitle "HI-TECH Software Omniscient Code Generator (Lite mode) build 49521"
  4139                           
  4140  0018'                    l1907:
  4141  0018' 6E00'              	movwf	(??___awtoft+0+0)&0ffh,c
  4142  001A' 0E01               	movlw	low(01h)
  4143  001C' 6E0C'              	movwf	((c:___awtoft@sign)),c
  4144  001E' 5000'              	movf	(??___awtoft+0+0)&0ffh,c,w
  4145  0020' D000               	goto	l1909
  4146                           opt subtitle "HI-TECH Software Omniscient Code Generator (Lite mode) build 49521"
  4147                           
  4148  0022'                    l260:
  4149                           opt subtitle "HI-TECH Software Omniscient Code Generator (Lite mode) build 49521"
  4150                           
  4151  0022'                    l1909:
  4152  0022' C008' F000'        	movff	(c:___awtoft@c),(c:?___ftpack)
  4153  0026' C009' F001'        	movff	(c:___awtoft@c+1),(c:?___ftpack+1)
  4154  002A' 6A02'              	clrf	((c:?___ftpack+2)),c
  4155  002C' 6E00'              	movwf	(??___awtoft+0+0)&0ffh,c
  4156  002E' 0E8E               	movlw	low(08Eh)
  4157  0030' 6E03'              	movwf	(0+((c:?___ftpack)+03h)),c
  4158  0032' 5000'              	movf	(??___awtoft+0+0)&0ffh,c,w
  4159  0034' C00C' F004'        	movff	(c:___awtoft@sign),0+((c:?___ftpack)+04h)
  4160  0038' EC00' F000'        	call	___ftpack	;wreg free
  4161  003C' C000' F008'        	movff	0+?___ftpack,(c:?___awtoft)
  4162  0040' C001' F009'        	movff	1+?___ftpack,(c:?___awtoft+1)
  4163  0044' C002' F00A'        	movff	2+?___ftpack,(c:?___awtoft+2)
  4164  0048' D000               	goto	l261
  4165                           opt subtitle "HI-TECH Software Omniscient Code Generator (Lite mode) build 49521"
  4166  004A'                    l1911:
  4167                           opt subtitle "HI-TECH Software Omniscient Code Generator (Lite mode) build 49521"
  4168                           
  4169  004A'                    l261:
  4170  004A' 0012               	return
  4171                           opt subtitle "HI-TECH Software Omniscient Code Generator (Lite mode) build 49521"
  4172                           
  4173  004C'                    	__end_of___awtoft:
  4174                           opt subtitle "HI-TECH Software Omniscient Code Generator (Lite mode) build 49521"
  4175                           
  4176                           opt pagewidth 120
  4177                           
  4178                           	opt lm
  4179                           
  4180                           	processor	18F2550
  4181                           porta	equ	0F80h
  4182                           portb	equ	0F81h
  4183                           portc	equ	0F82h
  4184                           portd	equ	0F83h
  4185                           porte	equ	0F84h
  4186                           lata	equ	0F89h
  4187                           latb	equ	0F8Ah
  4188                           latc	equ	0F8Bh
  4189                           latd	equ	0F8Ch
  4190                           late	equ	0F8Dh
  4191                           trisa	equ	0F92h
  4192                           trisb	equ	0F93h
  4193                           trisc	equ	0F94h
  4194                           trisd	equ	0F95h
  4195                           trise	equ	0F96h
  4196                           pie1	equ	0F9Dh
  4197                           pir1	equ	0F9Eh
  4198                           ipr1	equ	0F9Fh
  4199                           pie2	equ	0FA0h
  4200                           pir2	equ	0FA1h
  4201                           ipr2	equ	0FA2h
  4202                           t3con	equ	0FB1h
  4203                           tmr3l	equ	0FB2h
  4204                           tmr3h	equ	0FB3h
  4205                           ccp1con	equ	0FBDh
  4206                           ccpr1l	equ	0FBEh
  4207                           ccpr1h	equ	0FBFh
  4208                           adcon1	equ	0FC1h
  4209                           adcon0	equ	0FC2h
  4210                           adresl	equ	0FC3h
  4211                           adresh	equ	0FC4h
  4212                           sspcon2	equ	0FC5h
  4213  0000'                    __ptext10:
  4214                           opt subtitle "HI-TECH Software Omniscient Code Generator (Lite mode) build 49521"
  4215                           
  4216                           opt pagewidth 120
  4217                           
  4218  0000                     	__size_of___ftdiv	equ	__end_of___ftdiv-___ftdiv
  4219                           opt subtitle "HI-TECH Software Omniscient Code Generator (Lite mode) build 49521"
  4220  0000'                    ___ftdiv:
  4221                           opt subtitle "HI-TECH Software Omniscient Code Generator (Lite mode) build 49521"
  4222                           
  4223                           opt pagewidth 120
  4224  0000'                    l2005:
  4225  0000' 0E0F               	movlw	(0Fh)&0ffh
  4226  0002' 6E00'              	movwf	(??___ftdiv+0+0)&0ffh,c
  4227  0004' C011' F018'        	movff	(c:___ftdiv@f1),??___ftdiv+1+0
  4228  0008' C012' F019'        	movff	(c:___ftdiv@f1+1),??___ftdiv+1+0+1
  4229  000C' C013' F01A'        	movff	(c:___ftdiv@f1+2),??___ftdiv+1+0+2
  4230  0010' 2817'              	incf	((??___ftdiv+0+0)),c,w
  4231  0012' 6E00'              	movwf	(??___ftdiv+4+0)&0ffh,c
  4232  0014' D004               	goto	u1170
  4233  0016'                    u1175:
  4234  0016' 90D8               	bcf	status,0
  4235  0018' 321A'              	rrcf	(??___ftdiv+1+2),c
  4236  001A' 3219'              	rrcf	(??___ftdiv+1+1),c
  4237  001C' 3218'              	rrcf	(??___ftdiv+1+0),c
  4238  001E'                    u1170:
  4239  001E' 2E00'              	decfsz	(??___ftdiv+4+0)&0ffh,c
  4240  0020' D7FA               	goto	u1175
  4241  0022' 5018'              	movf	(??___ftdiv+1+0),c,w
  4242  0024' 6E20'              	movwf	((c:___ftdiv@exp)),c
  4243  0026' 6600'              	tstfsz	((c:___ftdiv@exp))&0ffh
  4244  0028' D001               	goto	u1181
  4245  002A' D001               	goto	u1180
  4246  002C'                    u1181:
  4247  002C' D008               	goto	l2011
  4248  002E'                    u1180:
  4249                           opt subtitle "HI-TECH Software Omniscient Code Generator (Lite mode) build 49521"
  4250                           
  4251  002E'                    l2007:
  4252  002E' 0E00               	movlw	low(float24(0.0000000000000000))
  4253  0030' 6E11'              	movwf	((c:?___ftdiv)),c
  4254  0032' 0E00               	movlw	high(float24(0.0000000000000000))
  4255  0034' 6E12'              	movwf	((c:?___ftdiv+1)),c
  4256  0036' 0E00               	movlw	low highword(float24(0.0000000000000000))
  4257  0038' 6E13'              	movwf	((c:?___ftdiv+2)),c
  4258                           opt subtitle "HI-TECH Software Omniscient Code Generator (Lite mode) build 49521"
  4259  003A' D070               	goto	l424
  4260                           opt subtitle "HI-TECH Software Omniscient Code Generator (Lite mode) build 49521"
  4261  003C'                    l2009:
  4262  003C' D06F               	goto	l424
  4263                           opt subtitle "HI-TECH Software Omniscient Code Generator (Lite mode) build 49521"
  4264  003E'                    l423:
  4265                           opt subtitle "HI-TECH Software Omniscient Code Generator (Lite mode) build 49521"
  4266                           
  4267  003E'                    l2011:
  4268  003E' 0E0F               	movlw	(0Fh)&0ffh
  4269  0040' 6E00'              	movwf	(??___ftdiv+0+0)&0ffh,c
  4270  0042' C014' F018'        	movff	(c:___ftdiv@f2),??___ftdiv+1+0
  4271  0046' C015' F019'        	movff	(c:___ftdiv@f2+1),??___ftdiv+1+0+1
  4272  004A' C016' F01A'        	movff	(c:___ftdiv@f2+2),??___ftdiv+1+0+2
  4273  004E' 2817'              	incf	((??___ftdiv+0+0)),c,w
  4274  0050' 6E00'              	movwf	(??___ftdiv+4+0)&0ffh,c
  4275  0052' D004               	goto	u1190
  4276  0054'                    u1195:
  4277  0054' 90D8               	bcf	status,0
  4278  0056' 321A'              	rrcf	(??___ftdiv+1+2),c
  4279  0058' 3219'              	rrcf	(??___ftdiv+1+1),c
  4280  005A' 3218'              	rrcf	(??___ftdiv+1+0),c
  4281  005C'                    u1190:
  4282  005C' 2E00'              	decfsz	(??___ftdiv+4+0)&0ffh,c
  4283  005E' D7FA               	goto	u1195
  4284  0060' 5018'              	movf	(??___ftdiv+1+0),c,w
  4285  0062' 6E21'              	movwf	((c:___ftdiv@sign)),c
  4286  0064' 6600'              	tstfsz	((c:___ftdiv@sign))&0ffh
  4287  0066' D001               	goto	u1201
  4288  0068' D001               	goto	u1200
  4289  006A'                    u1201:
  4290  006A' D008               	goto	l2017
  4291  006C'                    u1200:
  4292                           opt subtitle "HI-TECH Software Omniscient Code Generator (Lite mode) build 49521"
  4293                           
  4294  006C'                    l2013:
  4295  006C' 0E00               	movlw	low(float24(0.0000000000000000))
  4296  006E' 6E11'              	movwf	((c:?___ftdiv)),c
  4297  0070' 0E00               	movlw	high(float24(0.0000000000000000))
  4298  0072' 6E12'              	movwf	((c:?___ftdiv+1)),c
  4299  0074' 0E00               	movlw	low highword(float24(0.0000000000000000))
  4300  0076' 6E13'              	movwf	((c:?___ftdiv+2)),c
  4301                           opt subtitle "HI-TECH Software Omniscient Code Generator (Lite mode) build 49521"
  4302  0078' D051               	goto	l424
  4303                           opt subtitle "HI-TECH Software Omniscient Code Generator (Lite mode) build 49521"
  4304  007A'                    l2015:
  4305  007A' D050               	goto	l424
  4306                           opt subtitle "HI-TECH Software Omniscient Code Generator (Lite mode) build 49521"
  4307  007C'                    l425:
  4308                           opt subtitle "HI-TECH Software Omniscient Code Generator (Lite mode) build 49521"
  4309                           
  4310  007C'                    l2017:
  4311  007C' 0E00               	movlw	low(0)
  4312  007E' 6E1D'              	movwf	((c:___ftdiv@f3)),c
  4313  0080' 0E00               	movlw	high(0)
  4314  0082' 6E1E'              	movwf	((c:___ftdiv@f3+1)),c
  4315  0084' 0E00               	movlw	low highword(0)
  4316  0086' 6E1F'              	movwf	((c:___ftdiv@f3+2)),c
  4317                           opt subtitle "HI-TECH Software Omniscient Code Generator (Lite mode) build 49521"
  4318                           
  4319                           opt pagewidth 120
  4320  0088'                    l2019:
  4321  0088' 5021'              	movf	((c:___ftdiv@sign)),c,w
  4322  008A' 0F89               	addlw	low(089h)
  4323  008C' 5E20'              	subwf	((c:___ftdiv@exp)),c
  4324                           opt subtitle "HI-TECH Software Omniscient Code Generator (Lite mode) build 49521"
  4325                           
  4326  008E'                    l2021:
  4327  008E' C013' F021'        	movff	0+2+(c:___ftdiv@f1),(c:___ftdiv@sign)
  4328                           opt subtitle "HI-TECH Software Omniscient Code Generator (Lite mode) build 49521"
  4329                           
  4330  0092'                    l2023:
  4331  0092' 5000'              	movf	(0+2+(c:___ftdiv@f2))&0ffh,w
  4332  0094' 1A21'              	xorwf	((c:___ftdiv@sign)),c
  4333                           opt subtitle "HI-TECH Software Omniscient Code Generator (Lite mode) build 49521"
  4334                           
  4335  0096'                    l2025:
  4336  0096' 0E80               	movlw	(080h)&0ffh
  4337  0098' 1621'              	andwf	((c:___ftdiv@sign)),c
  4338                           opt subtitle "HI-TECH Software Omniscient Code Generator (Lite mode) build 49521"
  4339                           
  4340  009A'                    l2027:
  4341  009A' 8E12'              	bsf	(0+(15/8)+(c:___ftdiv@f1)),c,(15)&7
  4342                           opt subtitle "HI-TECH Software Omniscient Code Generator (Lite mode) build 49521"
  4343                           
  4344  009C'                    l2029:
  4345  009C' 0EFF               	movlw	low(0FFFFh)
  4346  009E' 1611'              	andwf	((c:___ftdiv@f1)),c
  4347  00A0' 0EFF               	movlw	high(0FFFFh)
  4348  00A2' 1612'              	andwf	((c:___ftdiv@f1+1)),c
  4349  00A4' 0E00               	movlw	low highword(0FFFFh)
  4350  00A6' 1613'              	andwf	((c:___ftdiv@f1+2)),c
  4351                           opt subtitle "HI-TECH Software Omniscient Code Generator (Lite mode) build 49521"
  4352                           
  4353                           opt pagewidth 120
  4354  00A8'                    l2031:
  4355  00A8' 8E15'              	bsf	(0+(15/8)+(c:___ftdiv@f2)),c,(15)&7
  4356                           opt subtitle "HI-TECH Software Omniscient Code Generator (Lite mode) build 49521"
  4357                           
  4358  00AA'                    l2033:
  4359  00AA' 0EFF               	movlw	low(0FFFFh)
  4360  00AC' 1614'              	andwf	((c:___ftdiv@f2)),c
  4361  00AE' 0EFF               	movlw	high(0FFFFh)
  4362  00B0' 1615'              	andwf	((c:___ftdiv@f2+1)),c
  4363  00B2' 0E00               	movlw	low highword(0FFFFh)
  4364  00B4' 1616'              	andwf	((c:___ftdiv@f2+2)),c
  4365                           opt subtitle "HI-TECH Software Omniscient Code Generator (Lite mode) build 49521"
  4366                           
  4367                           opt pagewidth 120
  4368  00B6'                    l2035:
  4369  00B6' 6E00'              	movwf	(??___ftdiv+0+0)&0ffh,c
  4370  00B8' 0E18               	movlw	low(018h)
  4371  00BA' 6E1C'              	movwf	((c:___ftdiv@cntr)),c
  4372  00BC' 5000'              	movf	(??___ftdiv+0+0)&0ffh,c,w
  4373                           opt subtitle "HI-TECH Software Omniscient Code Generator (Lite mode) build 49521"
  4374                           
  4375  00BE'                    l426:
  4376                           opt subtitle "HI-TECH Software Omniscient Code Generator (Lite mode) build 49521"
  4377  00BE' 90D8               	bcf	status,0
  4378  00C0' 361D'              	rlcf	((c:___ftdiv@f3)),c
  4379  00C2' 361E'              	rlcf	((c:___ftdiv@f3+1)),c
  4380  00C4' 361F'              	rlcf	((c:___ftdiv@f3+2)),c
  4381                           opt subtitle "HI-TECH Software Omniscient Code Generator (Lite mode) build 49521"
  4382                           
  4383  00C6'                    l2037:
  4384  00C6' 5014'              	movf	((c:___ftdiv@f2)),c,w
  4385  00C8' 5C11'              	subwf	((c:___ftdiv@f1)),c,w
  4386  00CA' 5015'              	movf	((c:___ftdiv@f2+1)),c,w
  4387  00CC' 5812'              	subwfb	((c:___ftdiv@f1+1)),c,w
  4388  00CE' 5016'              	movf	((c:___ftdiv@f2+2)),c,w
  4389  00D0' 5813'              	subwfb	((c:___ftdiv@f1+2)),c,w
  4390  00D2' A0D8               	btfss	status,0
  4391  00D4' D001               	goto	u1211
  4392  00D6' D001               	goto	u1210
  4393  00D8'                    u1211:
  4394  00D8' D007               	goto	l427
  4395  00DA'                    u1210:
  4396                           opt subtitle "HI-TECH Software Omniscient Code Generator (Lite mode) build 49521"
  4397                           
  4398  00DA'                    l2039:
  4399  00DA' 5014'              	movf	((c:___ftdiv@f2)),c,w
  4400  00DC' 5E11'              	subwf	((c:___ftdiv@f1)),c
  4401  00DE' 5015'              	movf	((c:___ftdiv@f2+1)),c,w
  4402  00E0' 5A12'              	subwfb	((c:___ftdiv@f1+1)),c
  4403  00E2' 5016'              	movf	((c:___ftdiv@f2+2)),c,w
  4404  00E4' 5A13'              	subwfb	((c:___ftdiv@f1+2)),c
  4405                           opt subtitle "HI-TECH Software Omniscient Code Generator (Lite mode) build 49521"
  4406                           
  4407                           opt pagewidth 120
  4408  00E6'                    l2041:
  4409  00E6' 801D'              	bsf	(0+(0/8)+(c:___ftdiv@f3)),c,(0)&7
  4410                           opt subtitle "HI-TECH Software Omniscient Code Generator (Lite mode) build 49521"
  4411                           
  4412  00E8'                    l427:
  4413                           opt subtitle "HI-TECH Software Omniscient Code Generator (Lite mode) build 49521"
  4414  00E8' 90D8               	bcf	status,0
  4415  00EA' 3611'              	rlcf	((c:___ftdiv@f1)),c
  4416  00EC' 3612'              	rlcf	((c:___ftdiv@f1+1)),c
  4417  00EE' 3613'              	rlcf	((c:___ftdiv@f1+2)),c
  4418                           opt subtitle "HI-TECH Software Omniscient Code Generator (Lite mode) build 49521"
  4419                           
  4420  00F0'                    l2043:
  4421  00F0' 2E1C'              	decfsz	((c:___ftdiv@cntr)),c
  4422                           opt subtitle "HI-TECH Software Omniscient Code Generator (Lite mode) build 49521"
  4423  00F2' D7E5               	goto	l426
  4424  00F4' D000               	goto	l2045
  4425                           opt subtitle "HI-TECH Software Omniscient Code Generator (Lite mode) build 49521"
  4426  00F6'                    l428:
  4427                           opt subtitle "HI-TECH Software Omniscient Code Generator (Lite mode) build 49521"
  4428                           
  4429  00F6'                    l2045:
  4430  00F6' C01D' F000'        	movff	(c:___ftdiv@f3),(c:?___ftpack)
  4431  00FA' C01E' F001'        	movff	(c:___ftdiv@f3+1),(c:?___ftpack+1)
  4432  00FE' C01F' F002'        	movff	(c:___ftdiv@f3+2),(c:?___ftpack+2)
  4433  0102' C020' F003'        	movff	(c:___ftdiv@exp),0+((c:?___ftpack)+03h)
  4434  0106' C021' F004'        	movff	(c:___ftdiv@sign),0+((c:?___ftpack)+04h)
  4435  010A' EC00' F000'        	call	___ftpack	;wreg free
  4436  010E' C000' F011'        	movff	0+?___ftpack,(c:?___ftdiv)
  4437  0112' C001' F012'        	movff	1+?___ftpack,(c:?___ftdiv+1)
  4438  0116' C002' F013'        	movff	2+?___ftpack,(c:?___ftdiv+2)
  4439  011A' D000               	goto	l424
  4440                           opt subtitle "HI-TECH Software Omniscient Code Generator (Lite mode) build 49521"
  4441  011C'                    l2047:
  4442                           opt subtitle "HI-TECH Software Omniscient Code Generator (Lite mode) build 49521"
  4443                           
  4444  011C'                    l424:
  4445  011C' 0012               	return
  4446                           opt subtitle "HI-TECH Software Omniscient Code Generator (Lite mode) build 49521"
  4447                           
  4448  011E'                    	__end_of___ftdiv:
  4449                           opt subtitle "HI-TECH Software Omniscient Code Generator (Lite mode) build 49521"
  4450                           
  4451                           opt pagewidth 120
  4452                           
  4453                           	opt lm
  4454                           
  4455                           	processor	18F2550
  4456                           porta	equ	0F80h
  4457                           portb	equ	0F81h
  4458                           portc	equ	0F82h
  4459                           portd	equ	0F83h
  4460                           porte	equ	0F84h
  4461                           lata	equ	0F89h
  4462                           latb	equ	0F8Ah
  4463                           latc	equ	0F8Bh
  4464                           latd	equ	0F8Ch
  4465                           late	equ	0F8Dh
  4466                           trisa	equ	0F92h
  4467                           trisb	equ	0F93h
  4468                           trisc	equ	0F94h
  4469                           trisd	equ	0F95h
  4470                           trise	equ	0F96h
  4471                           pie1	equ	0F9Dh
  4472                           pir1	equ	0F9Eh
  4473                           ipr1	equ	0F9Fh
  4474                           pie2	equ	0FA0h
  4475                           pir2	equ	0FA1h
  4476                           ipr2	equ	0FA2h
  4477                           t3con	equ	0FB1h
  4478                           tmr3l	equ	0FB2h
  4479                           tmr3h	equ	0FB3h
  4480                           ccp1con	equ	0FBDh
  4481                           ccpr1l	equ	0FBEh
  4482                           ccpr1h	equ	0FBFh
  4483                           adcon1	equ	0FC1h
  4484                           adcon0	equ	0FC2h
  4485  0000'                    __ptext11:
  4486                           opt subtitle "HI-TECH Software Omniscient Code Generator (Lite mode) build 49521"
  4487                           
  4488                           opt pagewidth 120
  4489                           
  4490  0000                     	__size_of___ftge	equ	__end_of___ftge-___ftge
  4491                           opt subtitle "HI-TECH Software Omniscient Code Generator (Lite mode) build 49521"
  4492  0000'                    ___ftge:
  4493                           opt subtitle "HI-TECH Software Omniscient Code Generator (Lite mode) build 49521"
  4494                           
  4495                           opt pagewidth 120
  4496  0000'                    l1843:
  4497                           opt subtitle "HI-TECH Software Omniscient Code Generator (Lite mode) build 49521"
  4498  0000' AE02'              	btfss	((c:___ftge@ff1+2)),c,(23)&7
  4499  0002' D001               	goto	u801
  4500  0004' D001               	goto	u800
  4501  0006'                    u801:
  4502  0006' D017               	goto	l1847
  4503  0008'                    u800:
  4504                           opt subtitle "HI-TECH Software Omniscient Code Generator (Lite mode) build 49521"
  4505                           
  4506  0008'                    l1845:
  4507  0008' C000' F006'        	movff	(c:___ftge@ff1),??___ftge+0+0
  4508  000C' C001' F007'        	movff	(c:___ftge@ff1+1),??___ftge+0+0+1
  4509  0010' C002' F008'        	movff	(c:___ftge@ff1+2),??___ftge+0+0+2
  4510  0014' 1E06'              	comf	(??___ftge+0+0),c
  4511  0016' 1E07'              	comf	(??___ftge+0+1),c
  4512  0018' 1E08'              	comf	(??___ftge+0+2),c
  4513  001A' 2A06'              	incf	(??___ftge+0+0),c
  4514  001C' 0E00               	movlw	0
  4515  001E' 2207'              	addwfc	(??___ftge+0+1),c
  4516  0020' 2208'              	addwfc	(??___ftge+0+2),c
  4517                           opt subtitle "HI-TECH Software Omniscient Code Generator (Lite mode) build 49521"
  4518  0022' 0E00               	movlw	low(0800000h)
  4519  0024' 2406'              	addwf	(??___ftge+0+0),c,w
  4520  0026' 6E00'              	movwf	((c:___ftge@ff1)),c
  4521  0028' 0E00               	movlw	0
  4522  002A' 2007'              	addwfc	(??___ftge+0+1),c,w
  4523  002C' 6E01'              	movwf	1+((c:___ftge@ff1)),c
  4524  002E' 0E80               	movlw	080h
  4525  0030' 2008'              	addwfc	(??___ftge+0+2),c,w
  4526  0032' 6E02'              	movwf	2+((c:___ftge@ff1)),c
  4527  0034' D000               	goto	l1847
  4528                           opt subtitle "HI-TECH Software Omniscient Code Generator (Lite mode) build 49521"
  4529  0036'                    l431:
  4530                           opt subtitle "HI-TECH Software Omniscient Code Generator (Lite mode) build 49521"
  4531                           
  4532  0036'                    l1847:
  4533                           opt subtitle "HI-TECH Software Omniscient Code Generator (Lite mode) build 49521"
  4534  0036' AE05'              	btfss	((c:___ftge@ff2+2)),c,(23)&7
  4535  0038' D001               	goto	u811
  4536  003A' D001               	goto	u810
  4537  003C'                    u811:
  4538  003C' D017               	goto	l1851
  4539  003E'                    u810:
  4540                           opt subtitle "HI-TECH Software Omniscient Code Generator (Lite mode) build 49521"
  4541                           
  4542  003E'                    l1849:
  4543  003E' C003' F006'        	movff	(c:___ftge@ff2),??___ftge+0+0
  4544  0042' C004' F007'        	movff	(c:___ftge@ff2+1),??___ftge+0+0+1
  4545  0046' C005' F008'        	movff	(c:___ftge@ff2+2),??___ftge+0+0+2
  4546  004A' 1E06'              	comf	(??___ftge+0+0),c
  4547  004C' 1E07'              	comf	(??___ftge+0+1),c
  4548  004E' 1E08'              	comf	(??___ftge+0+2),c
  4549  0050' 2A06'              	incf	(??___ftge+0+0),c
  4550  0052' 0E00               	movlw	0
  4551  0054' 2207'              	addwfc	(??___ftge+0+1),c
  4552  0056' 2208'              	addwfc	(??___ftge+0+2),c
  4553                           opt subtitle "HI-TECH Software Omniscient Code Generator (Lite mode) build 49521"
  4554  0058' 0E00               	movlw	low(0800000h)
  4555  005A' 2406'              	addwf	(??___ftge+0+0),c,w
  4556  005C' 6E03'              	movwf	((c:___ftge@ff2)),c
  4557  005E' 0E00               	movlw	0
  4558  0060' 2007'              	addwfc	(??___ftge+0+1),c,w
  4559  0062' 6E04'              	movwf	1+((c:___ftge@ff2)),c
  4560  0064' 0E80               	movlw	080h
  4561  0066' 2008'              	addwfc	(??___ftge+0+2),c,w
  4562  0068' 6E05'              	movwf	2+((c:___ftge@ff2)),c
  4563  006A' D000               	goto	l1851
  4564                           opt subtitle "HI-TECH Software Omniscient Code Generator (Lite mode) build 49521"
  4565  006C'                    l432:
  4566                           opt subtitle "HI-TECH Software Omniscient Code Generator (Lite mode) build 49521"
  4567                           
  4568  006C'                    l1851:
  4569  006C' 0E00               	movlw	low(0800000h)
  4570  006E' 1A00'              	xorwf	((c:___ftge@ff1)),c
  4571  0070' 0E00               	movlw	high(0800000h)
  4572  0072' 1A01'              	xorwf	((c:___ftge@ff1+1)),c
  4573  0074' 0E80               	movlw	low highword(0800000h)
  4574  0076' 1A02'              	xorwf	((c:___ftge@ff1+2)),c
  4575                           opt subtitle "HI-TECH Software Omniscient Code Generator (Lite mode) build 49521"
  4576                           
  4577                           opt pagewidth 120
  4578  0078'                    l1853:
  4579  0078' 0E00               	movlw	low(0800000h)
  4580  007A' 1A03'              	xorwf	((c:___ftge@ff2)),c
  4581  007C' 0E00               	movlw	high(0800000h)
  4582  007E' 1A04'              	xorwf	((c:___ftge@ff2+1)),c
  4583  0080' 0E80               	movlw	low highword(0800000h)
  4584  0082' 1A05'              	xorwf	((c:___ftge@ff2+2)),c
  4585                           opt subtitle "HI-TECH Software Omniscient Code Generator (Lite mode) build 49521"
  4586                           
  4587  0084' 5003'              	movf	((c:___ftge@ff2)),c,w
  4588  0086' 5C00'              	subwf	((c:___ftge@ff1)),c,w
  4589  0088' 5004'              	movf	((c:___ftge@ff2+1)),c,w
  4590  008A' 5801'              	subwfb	((c:___ftge@ff1+1)),c,w
  4591  008C' 5005'              	movf	((c:___ftge@ff2+2)),c,w
  4592  008E' 5802'              	subwfb	((c:___ftge@ff1+2)),c,w
  4593  0090' B0D8               	btfsc	status,0
  4594  0092' D001               	goto	u821
  4595  0094' D001               	goto	u820
  4596  0096'                    u821:
  4597  0096' D002               	goto	l1857
  4598  0098'                    u820:
  4599                           opt subtitle "HI-TECH Software Omniscient Code Generator (Lite mode) build 49521"
  4600  0098'                    l1855:
  4601  0098' 90D8               	bcf	status,0
  4602  009A' D003               	goto	l433
  4603                           opt subtitle "HI-TECH Software Omniscient Code Generator (Lite mode) build 49521"
  4604  009C'                    l1795:
  4605                           opt subtitle "HI-TECH Software Omniscient Code Generator (Lite mode) build 49521"
  4606  009C'                    l1857:
  4607  009C' 80D8               	bsf	status,0
  4608  009E' D001               	goto	l433
  4609                           opt subtitle "HI-TECH Software Omniscient Code Generator (Lite mode) build 49521"
  4610  00A0'                    l1797:
  4611  00A0' D000               	goto	l433
  4612                           opt subtitle "HI-TECH Software Omniscient Code Generator (Lite mode) build 49521"
  4613  00A2'                    l1859:
  4614                           opt subtitle "HI-TECH Software Omniscient Code Generator (Lite mode) build 49521"
  4615                           
  4616  00A2'                    l433:
  4617  00A2' 0012               	return
  4618                           opt subtitle "HI-TECH Software Omniscient Code Generator (Lite mode) build 49521"
  4619                           
  4620  00A4'                    	__end_of___ftge:
  4621                           opt subtitle "HI-TECH Software Omniscient Code Generator (Lite mode) build 49521"
  4622                           
  4623                           opt pagewidth 120
  4624                           
  4625                           	opt lm
  4626                           
  4627                           	processor	18F2550
  4628                           porta	equ	0F80h
  4629                           portb	equ	0F81h
  4630                           portc	equ	0F82h
  4631                           portd	equ	0F83h
  4632                           porte	equ	0F84h
  4633                           lata	equ	0F89h
  4634                           latb	equ	0F8Ah
  4635                           latc	equ	0F8Bh
  4636                           latd	equ	0F8Ch
  4637                           late	equ	0F8Dh
  4638                           trisa	equ	0F92h
  4639                           trisb	equ	0F93h
  4640                           trisc	equ	0F94h
  4641                           trisd	equ	0F95h
  4642                           trise	equ	0F96h
  4643                           pie1	equ	0F9Dh
  4644                           pir1	equ	0F9Eh
  4645                           ipr1	equ	0F9Fh
  4646                           pie2	equ	0FA0h
  4647                           pir2	equ	0FA1h
  4648                           ipr2	equ	0FA2h
  4649                           t3con	equ	0FB1h
  4650                           tmr3l	equ	0FB2h
  4651                           tmr3h	equ	0FB3h
  4652                           ccp1con	equ	0FBDh
  4653                           ccpr1l	equ	0FBEh
  4654                           ccpr1h	equ	0FBFh
  4655                           adcon1	equ	0FC1h
  4656                           adcon0	equ	0FC2h
  4657                           adresl	equ	0FC3h
  4658                           adresh	equ	0FC4h
  4659                           sspcon2	equ	0FC5h
  4660  0000'                    __ptext12:
  4661                           opt subtitle "HI-TECH Software Omniscient Code Generator (Lite mode) build 49521"
  4662                           
  4663                           opt pagewidth 120
  4664                           
  4665  0000                     	__size_of___ftmul	equ	__end_of___ftmul-___ftmul
  4666                           opt subtitle "HI-TECH Software Omniscient Code Generator (Lite mode) build 49521"
  4667  0000'                    ___ftmul:
  4668                           opt subtitle "HI-TECH Software Omniscient Code Generator (Lite mode) build 49521"
  4669                           
  4670                           opt pagewidth 120
  4671  0000'                    l2049:
  4672  0000' 0E0F               	movlw	(0Fh)&0ffh
  4673  0002' 6E00'              	movwf	(??___ftmul+0+0)&0ffh,c
  4674  0004' C00B' F012'        	movff	(c:___ftmul@f1),??___ftmul+1+0
  4675  0008' C00C' F013'        	movff	(c:___ftmul@f1+1),??___ftmul+1+0+1
  4676  000C' C00D' F014'        	movff	(c:___ftmul@f1+2),??___ftmul+1+0+2
  4677  0010' 2811'              	incf	((??___ftmul+0+0)),c,w
  4678  0012' 6E00'              	movwf	(??___ftmul+4+0)&0ffh,c
  4679  0014' D004               	goto	u1220
  4680  0016'                    u1225:
  4681  0016' 90D8               	bcf	status,0
  4682  0018' 3214'              	rrcf	(??___ftmul+1+2),c
  4683  001A' 3213'              	rrcf	(??___ftmul+1+1),c
  4684  001C' 3212'              	rrcf	(??___ftmul+1+0),c
  4685  001E'                    u1220:
  4686  001E' 2E00'              	decfsz	(??___ftmul+4+0)&0ffh,c
  4687  0020' D7FA               	goto	u1225
  4688  0022' 5012'              	movf	(??___ftmul+1+0),c,w
  4689  0024' 6E16'              	movwf	((c:___ftmul@exp)),c
  4690  0026' 6600'              	tstfsz	((c:___ftmul@exp))&0ffh
  4691  0028' D001               	goto	u1231
  4692  002A' D001               	goto	u1230
  4693  002C'                    u1231:
  4694  002C' D008               	goto	l2055
  4695  002E'                    u1230:
  4696                           opt subtitle "HI-TECH Software Omniscient Code Generator (Lite mode) build 49521"
  4697                           
  4698  002E'                    l2051:
  4699  002E' 0E00               	movlw	low(float24(0.0000000000000000))
  4700  0030' 6E0B'              	movwf	((c:?___ftmul)),c
  4701  0032' 0E00               	movlw	high(float24(0.0000000000000000))
  4702  0034' 6E0C'              	movwf	((c:?___ftmul+1)),c
  4703  0036' 0E00               	movlw	low highword(float24(0.0000000000000000))
  4704  0038' 6E0D'              	movwf	((c:?___ftmul+2)),c
  4705                           opt subtitle "HI-TECH Software Omniscient Code Generator (Lite mode) build 49521"
  4706  003A' D080               	goto	l439
  4707                           opt subtitle "HI-TECH Software Omniscient Code Generator (Lite mode) build 49521"
  4708  003C'                    l2053:
  4709  003C' D07F               	goto	l439
  4710                           opt subtitle "HI-TECH Software Omniscient Code Generator (Lite mode) build 49521"
  4711  003E'                    l438:
  4712                           opt subtitle "HI-TECH Software Omniscient Code Generator (Lite mode) build 49521"
  4713                           
  4714  003E'                    l2055:
  4715  003E' 0E0F               	movlw	(0Fh)&0ffh
  4716  0040' 6E00'              	movwf	(??___ftmul+0+0)&0ffh,c
  4717  0042' C00E' F012'        	movff	(c:___ftmul@f2),??___ftmul+1+0
  4718  0046' C00F' F013'        	movff	(c:___ftmul@f2+1),??___ftmul+1+0+1
  4719  004A' C010' F014'        	movff	(c:___ftmul@f2+2),??___ftmul+1+0+2
  4720  004E' 2811'              	incf	((??___ftmul+0+0)),c,w
  4721  0050' 6E00'              	movwf	(??___ftmul+4+0)&0ffh,c
  4722  0052' D004               	goto	u1240
  4723  0054'                    u1245:
  4724  0054' 90D8               	bcf	status,0
  4725  0056' 3214'              	rrcf	(??___ftmul+1+2),c
  4726  0058' 3213'              	rrcf	(??___ftmul+1+1),c
  4727  005A' 3212'              	rrcf	(??___ftmul+1+0),c
  4728  005C'                    u1240:
  4729  005C' 2E00'              	decfsz	(??___ftmul+4+0)&0ffh,c
  4730  005E' D7FA               	goto	u1245
  4731  0060' 5012'              	movf	(??___ftmul+1+0),c,w
  4732  0062' 6E1B'              	movwf	((c:___ftmul@sign)),c
  4733  0064' 6600'              	tstfsz	((c:___ftmul@sign))&0ffh
  4734  0066' D001               	goto	u1251
  4735  0068' D001               	goto	u1250
  4736  006A'                    u1251:
  4737  006A' D008               	goto	l2061
  4738  006C'                    u1250:
  4739                           opt subtitle "HI-TECH Software Omniscient Code Generator (Lite mode) build 49521"
  4740                           
  4741  006C'                    l2057:
  4742  006C' 0E00               	movlw	low(float24(0.0000000000000000))
  4743  006E' 6E0B'              	movwf	((c:?___ftmul)),c
  4744  0070' 0E00               	movlw	high(float24(0.0000000000000000))
  4745  0072' 6E0C'              	movwf	((c:?___ftmul+1)),c
  4746  0074' 0E00               	movlw	low highword(float24(0.0000000000000000))
  4747  0076' 6E0D'              	movwf	((c:?___ftmul+2)),c
  4748                           opt subtitle "HI-TECH Software Omniscient Code Generator (Lite mode) build 49521"
  4749  0078' D061               	goto	l439
  4750                           opt subtitle "HI-TECH Software Omniscient Code Generator (Lite mode) build 49521"
  4751  007A'                    l2059:
  4752  007A' D060               	goto	l439
  4753                           opt subtitle "HI-TECH Software Omniscient Code Generator (Lite mode) build 49521"
  4754  007C'                    l440:
  4755                           opt subtitle "HI-TECH Software Omniscient Code Generator (Lite mode) build 49521"
  4756                           
  4757  007C'                    l2061:
  4758  007C' 501B'              	movf	((c:___ftmul@sign)),c,w
  4759  007E' 0F7B               	addlw	low(07Bh)
  4760  0080' 2616'              	addwf	((c:___ftmul@exp)),c
  4761                           opt subtitle "HI-TECH Software Omniscient Code Generator (Lite mode) build 49521"
  4762                           
  4763  0082'                    l2063:
  4764  0082' C00D' F01B'        	movff	0+2+(c:___ftmul@f1),(c:___ftmul@sign)
  4765                           opt subtitle "HI-TECH Software Omniscient Code Generator (Lite mode) build 49521"
  4766  0086' 5000'              	movf	(0+2+(c:___ftmul@f2))&0ffh,w
  4767  0088' 1A1B'              	xorwf	((c:___ftmul@sign)),c
  4768                           opt subtitle "HI-TECH Software Omniscient Code Generator (Lite mode) build 49521"
  4769  008A' 0E80               	movlw	(080h)&0ffh
  4770  008C' 161B'              	andwf	((c:___ftmul@sign)),c
  4771                           opt subtitle "HI-TECH Software Omniscient Code Generator (Lite mode) build 49521"
  4772                           
  4773  008E'                    l2065:
  4774  008E' 8E0C'              	bsf	(0+(15/8)+(c:___ftmul@f1)),c,(15)&7
  4775                           opt subtitle "HI-TECH Software Omniscient Code Generator (Lite mode) build 49521"
  4776                           
  4777  0090'                    l2067:
  4778  0090' 8E0F'              	bsf	(0+(15/8)+(c:___ftmul@f2)),c,(15)&7
  4779                           opt subtitle "HI-TECH Software Omniscient Code Generator (Lite mode) build 49521"
  4780                           
  4781  0092'                    l2069:
  4782  0092' 0EFF               	movlw	low(0FFFFh)
  4783  0094' 160E'              	andwf	((c:___ftmul@f2)),c
  4784  0096' 0EFF               	movlw	high(0FFFFh)
  4785  0098' 160F'              	andwf	((c:___ftmul@f2+1)),c
  4786  009A' 0E00               	movlw	low highword(0FFFFh)
  4787  009C' 1610'              	andwf	((c:___ftmul@f2+2)),c
  4788                           opt subtitle "HI-TECH Software Omniscient Code Generator (Lite mode) build 49521"
  4789                           
  4790                           opt pagewidth 120
  4791  009E'                    l2071:
  4792  009E' 0E00               	movlw	low(0)
  4793  00A0' 6E17'              	movwf	((c:___ftmul@f3_as_product)),c
  4794  00A2' 0E00               	movlw	high(0)
  4795  00A4' 6E18'              	movwf	((c:___ftmul@f3_as_product+1)),c
  4796  00A6' 0E00               	movlw	low highword(0)
  4797  00A8' 6E19'              	movwf	((c:___ftmul@f3_as_product+2)),c
  4798                           opt subtitle "HI-TECH Software Omniscient Code Generator (Lite mode) build 49521"
  4799                           
  4800                           opt pagewidth 120
  4801  00AA'                    l2073:
  4802  00AA' 6E00'              	movwf	(??___ftmul+0+0)&0ffh,c
  4803  00AC' 0E07               	movlw	low(07h)
  4804  00AE' 6E1A'              	movwf	((c:___ftmul@cntr)),c
  4805  00B0' 5000'              	movf	(??___ftmul+0+0)&0ffh,c,w
  4806  00B2' D000               	goto	l2075
  4807                           opt subtitle "HI-TECH Software Omniscient Code Generator (Lite mode) build 49521"
  4808                           
  4809  00B4'                    l441:
  4810                           opt subtitle "HI-TECH Software Omniscient Code Generator (Lite mode) build 49521"
  4811                           
  4812  00B4'                    l2075:
  4813                           opt subtitle "HI-TECH Software Omniscient Code Generator (Lite mode) build 49521"
  4814  00B4' A00B'              	btfss	((c:___ftmul@f1)),c,(0)&7
  4815  00B6' D001               	goto	u1261
  4816  00B8' D001               	goto	u1260
  4817  00BA'                    u1261:
  4818  00BA' D007               	goto	l2079
  4819  00BC'                    u1260:
  4820                           opt subtitle "HI-TECH Software Omniscient Code Generator (Lite mode) build 49521"
  4821                           
  4822  00BC'                    l2077:
  4823  00BC' 500E'              	movf	((c:___ftmul@f2)),c,w
  4824  00BE' 2617'              	addwf	((c:___ftmul@f3_as_product)),c
  4825  00C0' 500F'              	movf	((c:___ftmul@f2+1)),c,w
  4826  00C2' 2218'              	addwfc	((c:___ftmul@f3_as_product+1)),c
  4827  00C4' 5010'              	movf	((c:___ftmul@f2+2)),c,w
  4828  00C6' 2219'              	addwfc	((c:___ftmul@f3_as_product+2)),c
  4829                           opt subtitle "HI-TECH Software Omniscient Code Generator (Lite mode) build 49521"
  4830  00C8' D000               	goto	l2079
  4831                           opt subtitle "HI-TECH Software Omniscient Code Generator (Lite mode) build 49521"
  4832  00CA'                    l442:
  4833                           opt subtitle "HI-TECH Software Omniscient Code Generator (Lite mode) build 49521"
  4834                           
  4835  00CA'                    l2079:
  4836  00CA' 90D8               	bcf	status,0
  4837  00CC' 320D'              	rrcf	((c:___ftmul@f1+2)),c
  4838  00CE' 320C'              	rrcf	((c:___ftmul@f1+1)),c
  4839  00D0' 320B'              	rrcf	((c:___ftmul@f1)),c
  4840                           opt subtitle "HI-TECH Software Omniscient Code Generator (Lite mode) build 49521"
  4841  00D2' 90D8               	bcf	status,0
  4842  00D4' 360E'              	rlcf	((c:___ftmul@f2)),c
  4843  00D6' 360F'              	rlcf	((c:___ftmul@f2+1)),c
  4844  00D8' 3610'              	rlcf	((c:___ftmul@f2+2)),c
  4845                           opt subtitle "HI-TECH Software Omniscient Code Generator (Lite mode) build 49521"
  4846                           
  4847  00DA'                    l2081:
  4848  00DA' 2E1A'              	decfsz	((c:___ftmul@cntr)),c
  4849                           opt subtitle "HI-TECH Software Omniscient Code Generator (Lite mode) build 49521"
  4850  00DC' D7EB               	goto	l2075
  4851  00DE' D000               	goto	l2083
  4852                           opt subtitle "HI-TECH Software Omniscient Code Generator (Lite mode) build 49521"
  4853  00E0'                    l443:
  4854                           opt subtitle "HI-TECH Software Omniscient Code Generator (Lite mode) build 49521"
  4855                           
  4856  00E0'                    l2083:
  4857  00E0' 6E00'              	movwf	(??___ftmul+0+0)&0ffh,c
  4858  00E2' 0E09               	movlw	low(09h)
  4859  00E4' 6E1A'              	movwf	((c:___ftmul@cntr)),c
  4860  00E6' 5000'              	movf	(??___ftmul+0+0)&0ffh,c,w
  4861  00E8' D000               	goto	l2085
  4862                           opt subtitle "HI-TECH Software Omniscient Code Generator (Lite mode) build 49521"
  4863                           
  4864  00EA'                    l444:
  4865                           opt subtitle "HI-TECH Software Omniscient Code Generator (Lite mode) build 49521"
  4866                           
  4867  00EA'                    l2085:
  4868                           opt subtitle "HI-TECH Software Omniscient Code Generator (Lite mode) build 49521"
  4869  00EA' A00B'              	btfss	((c:___ftmul@f1)),c,(0)&7
  4870  00EC' D001               	goto	u1271
  4871  00EE' D001               	goto	u1270
  4872  00F0'                    u1271:
  4873  00F0' D007               	goto	l2089
  4874  00F2'                    u1270:
  4875                           opt subtitle "HI-TECH Software Omniscient Code Generator (Lite mode) build 49521"
  4876                           
  4877  00F2'                    l2087:
  4878  00F2' 500E'              	movf	((c:___ftmul@f2)),c,w
  4879  00F4' 2617'              	addwf	((c:___ftmul@f3_as_product)),c
  4880  00F6' 500F'              	movf	((c:___ftmul@f2+1)),c,w
  4881  00F8' 2218'              	addwfc	((c:___ftmul@f3_as_product+1)),c
  4882  00FA' 5010'              	movf	((c:___ftmul@f2+2)),c,w
  4883  00FC' 2219'              	addwfc	((c:___ftmul@f3_as_product+2)),c
  4884                           opt subtitle "HI-TECH Software Omniscient Code Generator (Lite mode) build 49521"
  4885  00FE' D000               	goto	l2089
  4886                           opt subtitle "HI-TECH Software Omniscient Code Generator (Lite mode) build 49521"
  4887  0100'                    l445:
  4888                           opt subtitle "HI-TECH Software Omniscient Code Generator (Lite mode) build 49521"
  4889                           
  4890  0100'                    l2089:
  4891  0100' 90D8               	bcf	status,0
  4892  0102' 320D'              	rrcf	((c:___ftmul@f1+2)),c
  4893  0104' 320C'              	rrcf	((c:___ftmul@f1+1)),c
  4894  0106' 320B'              	rrcf	((c:___ftmul@f1)),c
  4895                           opt subtitle "HI-TECH Software Omniscient Code Generator (Lite mode) build 49521"
  4896  0108' 90D8               	bcf	status,0
  4897  010A' 3219'              	rrcf	((c:___ftmul@f3_as_product+2)),c
  4898  010C' 3218'              	rrcf	((c:___ftmul@f3_as_product+1)),c
  4899  010E' 3217'              	rrcf	((c:___ftmul@f3_as_product)),c
  4900                           opt subtitle "HI-TECH Software Omniscient Code Generator (Lite mode) build 49521"
  4901                           
  4902  0110'                    l2091:
  4903  0110' 2E1A'              	decfsz	((c:___ftmul@cntr)),c
  4904                           opt subtitle "HI-TECH Software Omniscient Code Generator (Lite mode) build 49521"
  4905  0112' D7EB               	goto	l2085
  4906  0114' D000               	goto	l2093
  4907                           opt subtitle "HI-TECH Software Omniscient Code Generator (Lite mode) build 49521"
  4908  0116'                    l446:
  4909                           opt subtitle "HI-TECH Software Omniscient Code Generator (Lite mode) build 49521"
  4910                           
  4911  0116'                    l2093:
  4912  0116' C017' F000'        	movff	(c:___ftmul@f3_as_product),(c:?___ftpack)
  4913  011A' C018' F001'        	movff	(c:___ftmul@f3_as_product+1),(c:?___ftpack+1)
  4914  011E' C019' F002'        	movff	(c:___ftmul@f3_as_product+2),(c:?___ftpack+2)
  4915  0122' C016' F003'        	movff	(c:___ftmul@exp),0+((c:?___ftpack)+03h)
  4916  0126' C01B' F004'        	movff	(c:___ftmul@sign),0+((c:?___ftpack)+04h)
  4917  012A' EC00' F000'        	call	___ftpack	;wreg free
  4918  012E' C000' F00B'        	movff	0+?___ftpack,(c:?___ftmul)
  4919  0132' C001' F00C'        	movff	1+?___ftpack,(c:?___ftmul+1)
  4920  0136' C002' F00D'        	movff	2+?___ftpack,(c:?___ftmul+2)
  4921  013A' D000               	goto	l439
  4922                           opt subtitle "HI-TECH Software Omniscient Code Generator (Lite mode) build 49521"
  4923  013C'                    l2095:
  4924                           opt subtitle "HI-TECH Software Omniscient Code Generator (Lite mode) build 49521"
  4925                           
  4926  013C'                    l439:
  4927  013C' 0012               	return
  4928                           opt subtitle "HI-TECH Software Omniscient Code Generator (Lite mode) build 49521"
  4929                           
  4930  013E'                    	__end_of___ftmul:
  4931                           opt subtitle "HI-TECH Software Omniscient Code Generator (Lite mode) build 49521"
  4932                           
  4933                           opt pagewidth 120
  4934                           
  4935                           	opt lm
  4936                           
  4937                           	processor	18F2550
  4938                           porta	equ	0F80h
  4939                           portb	equ	0F81h
  4940                           portc	equ	0F82h
  4941                           portd	equ	0F83h
  4942                           porte	equ	0F84h
  4943                           lata	equ	0F89h
  4944                           latb	equ	0F8Ah
  4945                           latc	equ	0F8Bh
  4946                           latd	equ	0F8Ch
  4947                           late	equ	0F8Dh
  4948                           trisa	equ	0F92h
  4949                           trisb	equ	0F93h
  4950                           trisc	equ	0F94h
  4951                           trisd	equ	0F95h
  4952                           trise	equ	0F96h
  4953                           pie1	equ	0F9Dh
  4954                           pir1	equ	0F9Eh
  4955                           ipr1	equ	0F9Fh
  4956                           pie2	equ	0FA0h
  4957                           pir2	equ	0FA1h
  4958                           ipr2	equ	0FA2h
  4959                           t3con	equ	0FB1h
  4960                           tmr3l	equ	0FB2h
  4961                           tmr3h	equ	0FB3h
  4962                           ccp1con	equ	0FBDh
  4963                           ccpr1l	equ	0FBEh
  4964                           ccpr1h	equ	0FBFh
  4965                           adcon1	equ	0FC1h
  4966  0000'                    __ptext13:
  4967                           opt subtitle "HI-TECH Software Omniscient Code Generator (Lite mode) build 49521"
  4968                           
  4969                           opt pagewidth 120
  4970                           
  4971  0000                     	__size_of___ftneg	equ	__end_of___ftneg-___ftneg
  4972                           opt subtitle "HI-TECH Software Omniscient Code Generator (Lite mode) build 49521"
  4973  0000'                    ___ftneg:
  4974                           opt subtitle "HI-TECH Software Omniscient Code Generator (Lite mode) build 49521"
  4975                           
  4976                           opt pagewidth 120
  4977  0000'                    l1983:
  4978  0000' 0E7F               	movlw	0x7f
  4979  0002' 140A'              	andwf	((c:___ftneg@f1+2)),c,w
  4980  0004' 1009'              	iorwf	((c:___ftneg@f1+1)),c,w
  4981  0006' 1008'              	iorwf	((c:___ftneg@f1)),c,w
  4982  0008' B4D8               	btfsc	status,2
  4983  000A' D001               	goto	u1131
  4984  000C' D001               	goto	u1130
  4985  000E'                    u1131:
  4986  000E' D006               	goto	l449
  4987  0010'                    u1130:
  4988                           opt subtitle "HI-TECH Software Omniscient Code Generator (Lite mode) build 49521"
  4989                           
  4990  0010'                    l1985:
  4991  0010' 0E00               	movlw	low(0800000h)
  4992  0012' 1A08'              	xorwf	((c:___ftneg@f1)),c
  4993  0014' 0E00               	movlw	high(0800000h)
  4994  0016' 1A09'              	xorwf	((c:___ftneg@f1+1)),c
  4995  0018' 0E80               	movlw	low highword(0800000h)
  4996  001A' 1A0A'              	xorwf	((c:___ftneg@f1+2)),c
  4997                           opt subtitle "HI-TECH Software Omniscient Code Generator (Lite mode) build 49521"
  4998                           
  4999  001C'                    l449:
  5000                           opt subtitle "HI-TECH Software Omniscient Code Generator (Lite mode) build 49521"
  5001  001C' C008' F008'        	movff	(c:___ftneg@f1),(c:?___ftneg)
  5002  0020' C009' F009'        	movff	(c:___ftneg@f1+1),(c:?___ftneg+1)
  5003  0024' C00A' F00A'        	movff	(c:___ftneg@f1+2),(c:?___ftneg+2)
  5004                           opt subtitle "HI-TECH Software Omniscient Code Generator (Lite mode) build 49521"
  5005                           
  5006  0028'                    l450:
  5007  0028' 0012               	return
  5008                           opt subtitle "HI-TECH Software Omniscient Code Generator (Lite mode) build 49521"
  5009                           
  5010  002A'                    	__end_of___ftneg:
  5011                           opt subtitle "HI-TECH Software Omniscient Code Generator (Lite mode) build 49521"
  5012                           
  5013                           opt pagewidth 120
  5014                           
  5015                           	opt lm
  5016                           
  5017                           	processor	18F2550
  5018                           porta	equ	0F80h
  5019                           portb	equ	0F81h
  5020                           portc	equ	0F82h
  5021                           portd	equ	0F83h
  5022                           porte	equ	0F84h
  5023                           lata	equ	0F89h
  5024                           latb	equ	0F8Ah
  5025                           latc	equ	0F8Bh
  5026                           latd	equ	0F8Ch
  5027                           late	equ	0F8Dh
  5028                           trisa	equ	0F92h
  5029                           trisb	equ	0F93h
  5030                           trisc	equ	0F94h
  5031                           trisd	equ	0F95h
  5032                           trise	equ	0F96h
  5033                           pie1	equ	0F9Dh
  5034                           pir1	equ	0F9Eh
  5035                           ipr1	equ	0F9Fh
  5036                           pie2	equ	0FA0h
  5037                           pir2	equ	0FA1h
  5038                           ipr2	equ	0FA2h
  5039                           t3con	equ	0FB1h
  5040                           tmr3l	equ	0FB2h
  5041                           tmr3h	equ	0FB3h
  5042                           ccp1con	equ	0FBDh
  5043                           ccpr1l	equ	0FBEh
  5044                           ccpr1h	equ	0FBFh
  5045                           adcon1	equ	0FC1h
  5046  0000'                    __ptext14:
  5047                           opt subtitle "HI-TECH Software Omniscient Code Generator (Lite mode) build 49521"
  5048                           
  5049                           opt pagewidth 120
  5050                           
  5051  0000                     	__size_of___lltoft	equ	__end_of___lltoft-___lltoft
  5052                           opt subtitle "HI-TECH Software Omniscient Code Generator (Lite mode) build 49521"
  5053  0000'                    ___lltoft:
  5054                           opt subtitle "HI-TECH Software Omniscient Code Generator (Lite mode) build 49521"
  5055                           
  5056                           opt pagewidth 120
  5057  0000'                    l1987:
  5058  0000' 6E00'              	movwf	(??___lltoft+0+0)&0ffh,c
  5059  0002' 0E8E               	movlw	low(08Eh)
  5060  0004' 6E10'              	movwf	((c:___lltoft@exp)),c
  5061  0006' 5000'              	movf	(??___lltoft+0+0)&0ffh,c,w
  5062                           opt subtitle "HI-TECH Software Omniscient Code Generator (Lite mode) build 49521"
  5063  0008' D007               	goto	l1991
  5064                           opt subtitle "HI-TECH Software Omniscient Code Generator (Lite mode) build 49521"
  5065  000A'                    l526:
  5066                           opt subtitle "HI-TECH Software Omniscient Code Generator (Lite mode) build 49521"
  5067                           
  5068  000A'                    l1989:
  5069  000A' 90D8               	bcf	status,0
  5070  000C' 320B'              	rrcf	((c:___lltoft@c+3)),c
  5071  000E' 320A'              	rrcf	((c:___lltoft@c+2)),c
  5072  0010' 3209'              	rrcf	((c:___lltoft@c+1)),c
  5073  0012' 3208'              	rrcf	((c:___lltoft@c)),c
  5074                           opt subtitle "HI-TECH Software Omniscient Code Generator (Lite mode) build 49521"
  5075  0014' 2A10'              	incf	((c:___lltoft@exp)),c
  5076  0016' D000               	goto	l1991
  5077                           opt subtitle "HI-TECH Software Omniscient Code Generator (Lite mode) build 49521"
  5078                           
  5079  0018'                    l525:
  5080                           opt subtitle "HI-TECH Software Omniscient Code Generator (Lite mode) build 49521"
  5081                           
  5082  0018'                    l1991:
  5083  0018' 0E00               	movlw	0
  5084  001A' 1408'              	andwf	((c:___lltoft@c)),c,w
  5085  001C' 6E00'              	movwf	(??___lltoft+0+0)&0ffh,c
  5086  001E' 0E00               	movlw	0
  5087  0020' 1409'              	andwf	((c:___lltoft@c+1)),c,w
  5088  0022' 6E00'              	movwf	1+(??___lltoft+0+0)&0ffh,c
  5089  0024' 0E00               	movlw	0
  5090  0026' 140A'              	andwf	((c:___lltoft@c+2)),c,w
  5091  0028' 6E00'              	movwf	2+(??___lltoft+0+0)&0ffh,c
  5092  002A' 0EFF               	movlw	0FFh
  5093  002C' 140B'              	andwf	((c:___lltoft@c+3)),c,w
  5094  002E' 6E00'              	movwf	3+(??___lltoft+0+0)&0ffh,c
  5095  0030' 500F'              	movf	(??___lltoft+0+3),c,w
  5096  0032' 100C'              	iorwf (??___lltoft+0+0),c,w
  5097  0034' 100D'              	iorwf (??___lltoft+0+1),c,w
  5098  0036' 100E'              	iorwf (??___lltoft+0+2),c,w
  5099                           opt subtitle "HI-TECH Software Omniscient Code Generator (Lite mode) build 49521"
  5100  0038' A4D8               	btfss	status,2
  5101  003A' D001               	goto	u1141
  5102  003C' D001               	goto	u1140
  5103  003E'                    u1141:
  5104  003E' D7E5               	goto	l1989
  5105  0040'                    u1140:
  5106  0040' D000               	goto	l1993
  5107                           opt subtitle "HI-TECH Software Omniscient Code Generator (Lite mode) build 49521"
  5108  0042'                    l527:
  5109                           opt subtitle "HI-TECH Software Omniscient Code Generator (Lite mode) build 49521"
  5110                           
  5111  0042'                    l1993:
  5112  0042' C008' F000'        	movff	(c:___lltoft@c),(c:?___ftpack)
  5113  0046' C009' F001'        	movff	(c:___lltoft@c+1),(c:?___ftpack+1)
  5114  004A' C00A' F002'        	movff	(c:___lltoft@c+2),(c:?___ftpack+2)
  5115  004E' C010' F003'        	movff	(c:___lltoft@exp),0+((c:?___ftpack)+03h)
  5116  0052' 6E00'              	movwf	(??___lltoft+0+0)&0ffh,c
  5117  0054' 0E00               	movlw	low(0)
  5118  0056' 6E04'              	movwf	(0+((c:?___ftpack)+04h)),c
  5119  0058' 5000'              	movf	(??___lltoft+0+0)&0ffh,c,w
  5120  005A' EC00' F000'        	call	___ftpack	;wreg free
  5121  005E' C000' F008'        	movff	0+?___ftpack,(c:?___lltoft)
  5122  0062' C001' F009'        	movff	1+?___ftpack,(c:?___lltoft+1)
  5123  0066' C002' F00A'        	movff	2+?___ftpack,(c:?___lltoft+2)
  5124  006A' D000               	goto	l528
  5125                           opt subtitle "HI-TECH Software Omniscient Code Generator (Lite mode) build 49521"
  5126  006C'                    l1995:
  5127                           opt subtitle "HI-TECH Software Omniscient Code Generator (Lite mode) build 49521"
  5128                           
  5129  006C'                    l528:
  5130  006C' 0012               	return
  5131                           opt subtitle "HI-TECH Software Omniscient Code Generator (Lite mode) build 49521"
  5132                           
  5133  006E'                    	__end_of___lltoft:
  5134                           opt subtitle "HI-TECH Software Omniscient Code Generator (Lite mode) build 49521"
  5135                           
  5136                           opt pagewidth 120
  5137                           
  5138                           	opt lm
  5139                           
  5140                           	processor	18F2550
  5141                           porta	equ	0F80h
  5142                           portb	equ	0F81h
  5143                           portc	equ	0F82h
  5144                           portd	equ	0F83h
  5145                           porte	equ	0F84h
  5146                           lata	equ	0F89h
  5147                           latb	equ	0F8Ah
  5148                           latc	equ	0F8Bh
  5149                           latd	equ	0F8Ch
  5150                           late	equ	0F8Dh
  5151                           trisa	equ	0F92h
  5152                           trisb	equ	0F93h
  5153                           trisc	equ	0F94h
  5154                           trisd	equ	0F95h
  5155                           trise	equ	0F96h
  5156                           pie1	equ	0F9Dh
  5157                           pir1	equ	0F9Eh
  5158                           ipr1	equ	0F9Fh
  5159                           pie2	equ	0FA0h
  5160                           pir2	equ	0FA1h
  5161                           ipr2	equ	0FA2h
  5162                           t3con	equ	0FB1h
  5163                           tmr3l	equ	0FB2h
  5164                           tmr3h	equ	0FB3h
  5165                           ccp1con	equ	0FBDh
  5166                           ccpr1l	equ	0FBEh
  5167                           ccpr1h	equ	0FBFh
  5168                           adcon1	equ	0FC1h
  5169                           adcon0	equ	0FC2h
  5170                           adresl	equ	0FC3h
  5171                           adresh	equ	0FC4h
  5172                           sspcon2	equ	0FC5h
  5173  0000'                    __ptext15:
  5174                           opt subtitle "HI-TECH Software Omniscient Code Generator (Lite mode) build 49521"
  5175                           
  5176                           opt pagewidth 120
  5177                           
  5178  0000                     	__size_of___ftpack	equ	__end_of___ftpack-___ftpack
  5179                           opt subtitle "HI-TECH Software Omniscient Code Generator (Lite mode) build 49521"
  5180  0000'                    ___ftpack:
  5181                           opt subtitle "HI-TECH Software Omniscient Code Generator (Lite mode) build 49521"
  5182                           
  5183                           opt pagewidth 120
  5184  0000'                    l1809:
  5185  0000' 5003'              	movf	((c:___ftpack@exp)),c,w
  5186  0002' B4D8               	btfsc	status,2
  5187  0004' D001               	goto	u731
  5188  0006' D001               	goto	u730
  5189  0008'                    u731:
  5190  0008' D008               	goto	l1813
  5191  000A'                    u730:
  5192                           opt subtitle "HI-TECH Software Omniscient Code Generator (Lite mode) build 49521"
  5193  000A'                    l1811:
  5194  000A' 5000'              	movf	((c:___ftpack@arg)),c,w
  5195  000C' 1001'              	iorwf	((c:___ftpack@arg+1)),c,w
  5196  000E' 1002'              	iorwf	((c:___ftpack@arg+2)),c,w
  5197  0010' A4D8               	btfss	status,2
  5198  0012' D001               	goto	u741
  5199  0014' D001               	goto	u740
  5200  0016'                    u741:
  5201  0016' D010               	goto	l1819
  5202  0018'                    u740:
  5203  0018' D000               	goto	l1813
  5204                           opt subtitle "HI-TECH Software Omniscient Code Generator (Lite mode) build 49521"
  5205  001A'                    l354:
  5206                           opt subtitle "HI-TECH Software Omniscient Code Generator (Lite mode) build 49521"
  5207                           
  5208  001A'                    l1813:
  5209  001A' 0E00               	movlw	low(float24(0.0000000000000000))
  5210  001C' 6E00'              	movwf	((c:?___ftpack)),c
  5211  001E' 0E00               	movlw	high(float24(0.0000000000000000))
  5212  0020' 6E01'              	movwf	((c:?___ftpack+1)),c
  5213  0022' 0E00               	movlw	low highword(float24(0.0000000000000000))
  5214  0024' 6E02'              	movwf	((c:?___ftpack+2)),c
  5215                           opt subtitle "HI-TECH Software Omniscient Code Generator (Lite mode) build 49521"
  5216  0026' D062               	goto	l355
  5217                           opt subtitle "HI-TECH Software Omniscient Code Generator (Lite mode) build 49521"
  5218  0028'                    l1815:
  5219  0028' D061               	goto	l355
  5220                           opt subtitle "HI-TECH Software Omniscient Code Generator (Lite mode) build 49521"
  5221  002A'                    l352:
  5222                           opt subtitle "HI-TECH Software Omniscient Code Generator (Lite mode) build 49521"
  5223  002A' D006               	goto	l1819
  5224                           opt subtitle "HI-TECH Software Omniscient Code Generator (Lite mode) build 49521"
  5225  002C'                    l357:
  5226                           opt subtitle "HI-TECH Software Omniscient Code Generator (Lite mode) build 49521"
  5227                           
  5228  002C'                    l1817:
  5229  002C' 2A03'              	incf	((c:___ftpack@exp)),c
  5230                           opt subtitle "HI-TECH Software Omniscient Code Generator (Lite mode) build 49521"
  5231  002E' 90D8               	bcf	status,0
  5232  0030' 3202'              	rrcf	((c:___ftpack@arg+2)),c
  5233  0032' 3201'              	rrcf	((c:___ftpack@arg+1)),c
  5234  0034' 3200'              	rrcf	((c:___ftpack@arg)),c
  5235  0036' D000               	goto	l1819
  5236                           opt subtitle "HI-TECH Software Omniscient Code Generator (Lite mode) build 49521"
  5237                           
  5238  0038'                    l356:
  5239                           opt subtitle "HI-TECH Software Omniscient Code Generator (Lite mode) build 49521"
  5240                           
  5241  0038'                    l1819:
  5242  0038' 0E00               	movlw	low(0FE0000h)
  5243  003A' 1400'              	andwf	((c:___ftpack@arg)),c,w
  5244  003C' 6E00'              	movwf	(??___ftpack+0+0)&0ffh,c
  5245  003E' 0E00               	movlw	0
  5246  0040' 1401'              	andwf	((c:___ftpack@arg+1)),c,w
  5247  0042' 6E00'              	movwf	1+(??___ftpack+0+0)&0ffh,c
  5248  0044' 0EFE               	movlw	0FEh
  5249  0046' 1402'              	andwf	((c:___ftpack@arg+2)),c,w
  5250  0048' 6E00'              	movwf	2+(??___ftpack+0+0)&0ffh,c
  5251                           opt subtitle "HI-TECH Software Omniscient Code Generator (Lite mode) build 49521"
  5252  004A' 5005'              	movf	(??___ftpack+0+0),c,w
  5253  004C' 1006'              	iorwf	(??___ftpack+0+1),c,w
  5254  004E' 1007'              	iorwf	(??___ftpack+0+2),c,w
  5255  0050' A4D8               	btfss	status,2
  5256  0052' D001               	goto	u751
  5257  0054' D001               	goto	u750
  5258  0056'                    u751:
  5259  0056' D7EA               	goto	l1817
  5260  0058'                    u750:
  5261  0058' D00D               	goto	l1825
  5262                           opt subtitle "HI-TECH Software Omniscient Code Generator (Lite mode) build 49521"
  5263  005A'                    l358:
  5264                           opt subtitle "HI-TECH Software Omniscient Code Generator (Lite mode) build 49521"
  5265  005A' D00C               	goto	l1825
  5266                           opt subtitle "HI-TECH Software Omniscient Code Generator (Lite mode) build 49521"
  5267  005C'                    l360:
  5268                           opt subtitle "HI-TECH Software Omniscient Code Generator (Lite mode) build 49521"
  5269                           
  5270  005C'                    l1821:
  5271  005C' 2A03'              	incf	((c:___ftpack@exp)),c
  5272                           opt subtitle "HI-TECH Software Omniscient Code Generator (Lite mode) build 49521"
  5273                           
  5274  005E'                    l1823:
  5275  005E' 0E01               	movlw	low(01h)
  5276  0060' 2600'              	addwf	((c:___ftpack@arg)),c
  5277  0062' 0E00               	movlw	high(01h)
  5278  0064' 2201'              	addwfc	((c:___ftpack@arg+1)),c
  5279  0066' 0E00               	movlw	low highword(01h)
  5280  0068' 2202'              	addwfc	((c:___ftpack@arg+2)),c
  5281                           opt subtitle "HI-TECH Software Omniscient Code Generator (Lite mode) build 49521"
  5282                           
  5283  006A' 90D8               	bcf	status,0
  5284  006C' 3202'              	rrcf	((c:___ftpack@arg+2)),c
  5285  006E' 3201'              	rrcf	((c:___ftpack@arg+1)),c
  5286  0070' 3200'              	rrcf	((c:___ftpack@arg)),c
  5287  0072' D000               	goto	l1825
  5288                           opt subtitle "HI-TECH Software Omniscient Code Generator (Lite mode) build 49521"
  5289                           
  5290  0074'                    l359:
  5291                           opt subtitle "HI-TECH Software Omniscient Code Generator (Lite mode) build 49521"
  5292                           
  5293  0074'                    l1825:
  5294  0074' 0E00               	movlw	low(0FF0000h)
  5295  0076' 1400'              	andwf	((c:___ftpack@arg)),c,w
  5296  0078' 6E00'              	movwf	(??___ftpack+0+0)&0ffh,c
  5297  007A' 0E00               	movlw	0
  5298  007C' 1401'              	andwf	((c:___ftpack@arg+1)),c,w
  5299  007E' 6E00'              	movwf	1+(??___ftpack+0+0)&0ffh,c
  5300  0080' 0EFF               	movlw	0FFh
  5301  0082' 1402'              	andwf	((c:___ftpack@arg+2)),c,w
  5302  0084' 6E00'              	movwf	2+(??___ftpack+0+0)&0ffh,c
  5303                           opt subtitle "HI-TECH Software Omniscient Code Generator (Lite mode) build 49521"
  5304  0086' 5005'              	movf	(??___ftpack+0+0),c,w
  5305  0088' 1006'              	iorwf	(??___ftpack+0+1),c,w
  5306  008A' 1007'              	iorwf	(??___ftpack+0+2),c,w
  5307  008C' A4D8               	btfss	status,2
  5308  008E' D001               	goto	u761
  5309  0090' D001               	goto	u760
  5310  0092'                    u761:
  5311  0092' D7E4               	goto	l1821
  5312  0094'                    u760:
  5313  0094' D007               	goto	l1829
  5314                           opt subtitle "HI-TECH Software Omniscient Code Generator (Lite mode) build 49521"
  5315  0096'                    l361:
  5316                           opt subtitle "HI-TECH Software Omniscient Code Generator (Lite mode) build 49521"
  5317  0096' D006               	goto	l1829
  5318                           opt subtitle "HI-TECH Software Omniscient Code Generator (Lite mode) build 49521"
  5319  0098'                    l363:
  5320                           opt subtitle "HI-TECH Software Omniscient Code Generator (Lite mode) build 49521"
  5321                           
  5322  0098'                    l1827:
  5323  0098' 0603'              	decf	((c:___ftpack@exp)),c
  5324                           opt subtitle "HI-TECH Software Omniscient Code Generator (Lite mode) build 49521"
  5325  009A' 90D8               	bcf	status,0
  5326  009C' 3600'              	rlcf	((c:___ftpack@arg)),c
  5327  009E' 3601'              	rlcf	((c:___ftpack@arg+1)),c
  5328  00A0' 3602'              	rlcf	((c:___ftpack@arg+2)),c
  5329  00A2' D000               	goto	l1829
  5330                           opt subtitle "HI-TECH Software Omniscient Code Generator (Lite mode) build 49521"
  5331                           
  5332  00A4'                    l362:
  5333                           opt subtitle "HI-TECH Software Omniscient Code Generator (Lite mode) build 49521"
  5334                           
  5335  00A4'                    l1829:
  5336                           opt subtitle "HI-TECH Software Omniscient Code Generator (Lite mode) build 49521"
  5337  00A4' AE01'              	btfss	((c:___ftpack@arg+1)),c,(15)&7
  5338  00A6' D001               	goto	u771
  5339  00A8' D001               	goto	u770
  5340  00AA'                    u771:
  5341  00AA' D7F6               	goto	l1827
  5342  00AC'                    u770:
  5343                           opt subtitle "HI-TECH Software Omniscient Code Generator (Lite mode) build 49521"
  5344  00AC'                    l364:
  5345                           opt subtitle "HI-TECH Software Omniscient Code Generator (Lite mode) build 49521"
  5346                           
  5347  00AC' B003'              	btfsc	((c:___ftpack@exp)),c,(0)&7
  5348  00AE' D001               	goto	u781
  5349  00B0' D001               	goto	u780
  5350  00B2'                    u781:
  5351  00B2' D002               	goto	l1833
  5352  00B4'                    u780:
  5353                           opt subtitle "HI-TECH Software Omniscient Code Generator (Lite mode) build 49521"
  5354                           
  5355  00B4'                    l1831:
  5356  00B4' 9E01'              	bcf	(0+(15/8)+(c:___ftpack@arg)),c,(15)&7
  5357  00B6' D000               	goto	l1833
  5358                           opt subtitle "HI-TECH Software Omniscient Code Generator (Lite mode) build 49521"
  5359  00B8'                    l365:
  5360                           opt subtitle "HI-TECH Software Omniscient Code Generator (Lite mode) build 49521"
  5361                           
  5362  00B8'                    l1833:
  5363  00B8' 90D8               	bcf status,0
  5364  00BA' 3203'              	rrcf	((c:___ftpack@exp)),c
  5365                           opt subtitle "HI-TECH Software Omniscient Code Generator (Lite mode) build 49521"
  5366                           
  5367  00BC' 5003'              	movf	((c:___ftpack@exp)),c,w
  5368  00BE' 6E00'              	movwf	(??___ftpack+0+0+2)&0ffh,c
  5369  00C0' 6A00'              	clrf	(??___ftpack+0+0+1)&0ffh,c
  5370  00C2' 6A00'              	clrf	(??___ftpack+0+0)&0ffh,c
  5371  00C4' 5005'              	movf	(??___ftpack+0+0),c,w
  5372  00C6' 1200'              	iorwf	((c:___ftpack@arg)),c
  5373  00C8' 5006'              	movf	(??___ftpack+0+1),c,w
  5374  00CA' 1201'              	iorwf	((c:___ftpack@arg+1)),c
  5375  00CC' 5007'              	movf	(??___ftpack+0+2),c,w
  5376  00CE' 1202'              	iorwf	((c:___ftpack@arg+2)),c
  5377                           opt subtitle "HI-TECH Software Omniscient Code Generator (Lite mode) build 49521"
  5378                           
  5379                           opt pagewidth 120
  5380  00D0'                    l1835:
  5381  00D0' 5004'              	movf	((c:___ftpack@sign)),c,w
  5382  00D2' B4D8               	btfsc	status,2
  5383  00D4' D001               	goto	u791
  5384  00D6' D001               	goto	u790
  5385  00D8'                    u791:
  5386  00D8' D002               	goto	l1839
  5387  00DA'                    u790:
  5388                           opt subtitle "HI-TECH Software Omniscient Code Generator (Lite mode) build 49521"
  5389                           
  5390  00DA'                    l1837:
  5391  00DA' 8E02'              	bsf	(0+(23/8)+(c:___ftpack@arg)),c,(23)&7
  5392  00DC' D000               	goto	l1839
  5393                           opt subtitle "HI-TECH Software Omniscient Code Generator (Lite mode) build 49521"
  5394  00DE'                    l366:
  5395                           opt subtitle "HI-TECH Software Omniscient Code Generator (Lite mode) build 49521"
  5396                           
  5397  00DE'                    l1839:
  5398  00DE' C000' F000'        	movff	(c:___ftpack@arg),(c:?___ftpack)
  5399  00E2' C001' F001'        	movff	(c:___ftpack@arg+1),(c:?___ftpack+1)
  5400  00E6' C002' F002'        	movff	(c:___ftpack@arg+2),(c:?___ftpack+2)
  5401  00EA' D000               	goto	l355
  5402                           opt subtitle "HI-TECH Software Omniscient Code Generator (Lite mode) build 49521"
  5403  00EC'                    l1841:
  5404                           opt subtitle "HI-TECH Software Omniscient Code Generator (Lite mode) build 49521"
  5405                           
  5406  00EC'                    l355:
  5407  00EC' 0012               	return
  5408                           opt subtitle "HI-TECH Software Omniscient Code Generator (Lite mode) build 49521"
  5409                           
  5410  00EE'                    	__end_of___ftpack:
  5411                           opt subtitle "HI-TECH Software Omniscient Code Generator (Lite mode) build 49521"
  5412                           
  5413                           opt pagewidth 120
  5414                           
  5415                           	opt lm
  5416                           
  5417                           	processor	18F2550
  5418                           porta	equ	0F80h
  5419                           portb	equ	0F81h
  5420                           portc	equ	0F82h
  5421                           portd	equ	0F83h
  5422                           porte	equ	0F84h
  5423                           lata	equ	0F89h
  5424                           latb	equ	0F8Ah
  5425                           latc	equ	0F8Bh
  5426                           latd	equ	0F8Ch
  5427                           late	equ	0F8Dh
  5428                           trisa	equ	0F92h
  5429                           trisb	equ	0F93h
  5430                           trisc	equ	0F94h
  5431                           trisd	equ	0F95h
  5432                           trise	equ	0F96h
  5433                           pie1	equ	0F9Dh
  5434                           pir1	equ	0F9Eh
  5435                           ipr1	equ	0F9Fh
  5436                           pie2	equ	0FA0h
  5437                           pir2	equ	0FA1h
  5438                           ipr2	equ	0FA2h
  5439                           t3con	equ	0FB1h
  5440                           tmr3l	equ	0FB2h
  5441                           tmr3h	equ	0FB3h
  5442                           ccp1con	equ	0FBDh
  5443                           ccpr1l	equ	0FBEh
  5444                           ccpr1h	equ	0FBFh
  5445                           adcon1	equ	0FC1h
  5446                           adcon0	equ	0FC2h
  5447  0000'                    __ptext16:
  5448                           opt subtitle "HI-TECH Software Omniscient Code Generator (Lite mode) build 49521"
  5449                           
  5450                           opt pagewidth 120
  5451                           
  5452  0000                     	__size_of___asftadd	equ	__end_of___asftadd-___asftadd
  5453                           opt subtitle "HI-TECH Software Omniscient Code Generator (Lite mode) build 49521"
  5454  0000'                    ___asftadd:
  5455                           opt subtitle "HI-TECH Software Omniscient Code Generator (Lite mode) build 49521"
  5456                           
  5457                           opt pagewidth 120
  5458  0000'                    l2097:
  5459                           opt subtitle "HI-TECH Software Omniscient Code Generator (Lite mode) build 49521"
  5460  0000' C02A' FFD9         	movff	(c:___asftadd@f1p),fsr2l
  5461  0004' C02B' FFDA         	movff	(c:___asftadd@f1p+1),fsr2h
  5462  0008' CFDE F01C'         	movff	postinc2,(c:?___ftadd)
  5463  000C' CFDE F01D'         	movff	postinc2,(c:?___ftadd+1)
  5464  0010' CFDD F01E'         	movff	postdec2,(c:?___ftadd+2)
  5465  0014' C02C' F01F'        	movff	(c:___asftadd@f2),0+((c:?___ftadd)+03h)
  5466  0018' C02D' F020'        	movff	(c:___asftadd@f2+1),1+((c:?___ftadd)+03h)
  5467  001C' C02E' F021'        	movff	(c:___asftadd@f2+2),2+((c:?___ftadd)+03h)
  5468  0020' EC00' F000'        	call	___ftadd	;wreg free
  5469  0024' C02A' FFD9         	movff	(c:___asftadd@f1p),fsr2l
  5470  0028' C02B' FFDA         	movff	(c:___asftadd@f1p+1),fsr2h
  5471  002C' C01C' FFDE         	movff	0+?___ftadd,postinc2
  5472  0030' C01D' FFDE         	movff	1+?___ftadd,postinc2
  5473  0034' C01E' FFDD         	movff	2+?___ftadd,postdec2
  5474  0038' 52DD               	movf	postdec2
  5475  003A' D000               	goto	l631
  5476                           opt subtitle "HI-TECH Software Omniscient Code Generator (Lite mode) build 49521"
  5477  003C'                    l2099:
  5478                           opt subtitle "HI-TECH Software Omniscient Code Generator (Lite mode) build 49521"
  5479                           
  5480  003C'                    l631:
  5481  003C' 0012               	return
  5482                           opt subtitle "HI-TECH Software Omniscient Code Generator (Lite mode) build 49521"
  5483                           
  5484  003E'                    	__end_of___asftadd:
  5485                           opt subtitle "HI-TECH Software Omniscient Code Generator (Lite mode) build 49521"
  5486                           
  5487                           opt pagewidth 120
  5488                           
  5489                           	opt lm
  5490                           
  5491                           	processor	18F2550
  5492                           porta	equ	0F80h
  5493                           portb	equ	0F81h
  5494                           portc	equ	0F82h
  5495                           portd	equ	0F83h
  5496                           porte	equ	0F84h
  5497                           lata	equ	0F89h
  5498                           latb	equ	0F8Ah
  5499                           latc	equ	0F8Bh
  5500                           latd	equ	0F8Ch
  5501                           late	equ	0F8Dh
  5502                           trisa	equ	0F92h
  5503                           trisb	equ	0F93h
  5504                           trisc	equ	0F94h
  5505                           trisd	equ	0F95h
  5506                           trise	equ	0F96h
  5507                           pie1	equ	0F9Dh
  5508                           pir1	equ	0F9Eh
  5509                           ipr1	equ	0F9Fh
  5510                           pie2	equ	0FA0h
  5511                           pir2	equ	0FA1h
  5512                           ipr2	equ	0FA2h
  5513                           t3con	equ	0FB1h
  5514                           tmr3l	equ	0FB2h
  5515                           tmr3h	equ	0FB3h
  5516                           ccp1con	equ	0FBDh
  5517                           ccpr1l	equ	0FBEh
  5518                           ccpr1h	equ	0FBFh
  5519                           adcon1	equ	0FC1h
  5520                           adcon0	equ	0FC2h
  5521                           adresl	equ	0FC3h
  5522                           adresh	equ	0FC4h
  5523  0000'                    __ptext17:
  5524                           opt subtitle "HI-TECH Software Omniscient Code Generator (Lite mode) build 49521"
  5525                           
  5526                           opt pagewidth 120
  5527                           
  5528  0000                     	__size_of___ftadd	equ	__end_of___ftadd-___ftadd
  5529                           opt subtitle "HI-TECH Software Omniscient Code Generator (Lite mode) build 49521"
  5530  0000'                    ___ftadd:
  5531                           opt subtitle "HI-TECH Software Omniscient Code Generator (Lite mode) build 49521"
  5532                           
  5533                           opt pagewidth 120
  5534  0000'                    l1913:
  5535  0000' 0E0F               	movlw	(0Fh)&0ffh
  5536  0002' 6E00'              	movwf	(??___ftadd+0+0)&0ffh,c
  5537  0004' C01C' F023'        	movff	(c:___ftadd@f1),??___ftadd+1+0
  5538  0008' C01D' F024'        	movff	(c:___ftadd@f1+1),??___ftadd+1+0+1
  5539  000C' C01E' F025'        	movff	(c:___ftadd@f1+2),??___ftadd+1+0+2
  5540  0010' 2822'              	incf	((??___ftadd+0+0)),c,w
  5541  0012' 6E00'              	movwf	(??___ftadd+4+0)&0ffh,c
  5542  0014' D004               	goto	u920
  5543  0016'                    u925:
  5544  0016' 90D8               	bcf	status,0
  5545  0018' 3225'              	rrcf	(??___ftadd+1+2),c
  5546  001A' 3224'              	rrcf	(??___ftadd+1+1),c
  5547  001C' 3223'              	rrcf	(??___ftadd+1+0),c
  5548  001E'                    u920:
  5549  001E' 2E00'              	decfsz	(??___ftadd+4+0)&0ffh,c
  5550  0020' D7FA               	goto	u925
  5551  0022' 5023'              	movf	(??___ftadd+1+0),c,w
  5552  0024' 6E29'              	movwf	((c:___ftadd@exp1)),c
  5553                           opt subtitle "HI-TECH Software Omniscient Code Generator (Lite mode) build 49521"
  5554  0026' 0E0F               	movlw	(0Fh)&0ffh
  5555  0028' 6E00'              	movwf	(??___ftadd+0+0)&0ffh,c
  5556  002A' C01F' F023'        	movff	(c:___ftadd@f2),??___ftadd+1+0
  5557  002E' C020' F024'        	movff	(c:___ftadd@f2+1),??___ftadd+1+0+1
  5558  0032' C021' F025'        	movff	(c:___ftadd@f2+2),??___ftadd+1+0+2
  5559  0036' 2822'              	incf	((??___ftadd+0+0)),c,w
  5560  0038' 6E00'              	movwf	(??___ftadd+4+0)&0ffh,c
  5561  003A' D004               	goto	u930
  5562  003C'                    u935:
  5563  003C' 90D8               	bcf	status,0
  5564  003E' 3225'              	rrcf	(??___ftadd+1+2),c
  5565  0040' 3224'              	rrcf	(??___ftadd+1+1),c
  5566  0042' 3223'              	rrcf	(??___ftadd+1+0),c
  5567  0044'                    u930:
  5568  0044' 2E00'              	decfsz	(??___ftadd+4+0)&0ffh,c
  5569  0046' D7FA               	goto	u935
  5570  0048' 5023'              	movf	(??___ftadd+1+0),c,w
  5571  004A' 6E28'              	movwf	((c:___ftadd@exp2)),c
  5572                           opt subtitle "HI-TECH Software Omniscient Code Generator (Lite mode) build 49521"
  5573                           
  5574  004C'                    l1915:
  5575  004C' 5029'              	movf	((c:___ftadd@exp1)),c,w
  5576  004E' B4D8               	btfsc	status,2
  5577  0050' D001               	goto	u941
  5578  0052' D001               	goto	u940
  5579  0054'                    u941:
  5580  0054' D00F               	goto	l392
  5581  0056'                    u940:
  5582                           opt subtitle "HI-TECH Software Omniscient Code Generator (Lite mode) build 49521"
  5583  0056'                    l1917:
  5584  0056' 5028'              	movf	((c:___ftadd@exp2)),c,w
  5585  0058' 6029'              	cpfslt	((c:___ftadd@exp1)),c
  5586  005A' D001               	goto	u951
  5587  005C' D001               	goto	u950
  5588  005E'                    u951:
  5589  005E' D011               	goto	l1921
  5590  0060'                    u950:
  5591                           opt subtitle "HI-TECH Software Omniscient Code Generator (Lite mode) build 49521"
  5592  0060'                    l1919:
  5593  0060' 5029'              	movf	((c:___ftadd@exp1)),c,w
  5594  0062' 0800               	sublw	0
  5595  0064' 2428'              	addwf	((c:___ftadd@exp2)),c,w
  5596  0066' 6E00'              	movwf	(??___ftadd+0+0)&0ffh,c
  5597  0068' 0E19               	movlw	(019h)&0ffh
  5598  006A' 5C22'              	subwf	((??___ftadd+0+0)),c,w
  5599  006C' A0D8               	btfss	status,0
  5600  006E' D001               	goto	u961
  5601  0070' D001               	goto	u960
  5602  0072'                    u961:
  5603  0072' D007               	goto	l1921
  5604  0074'                    u960:
  5605                           opt subtitle "HI-TECH Software Omniscient Code Generator (Lite mode) build 49521"
  5606  0074'                    l392:
  5607                           opt subtitle "HI-TECH Software Omniscient Code Generator (Lite mode) build 49521"
  5608  0074' C01F' F01C'        	movff	(c:___ftadd@f2),(c:?___ftadd)
  5609  0078' C020' F01D'        	movff	(c:___ftadd@f2+1),(c:?___ftadd+1)
  5610  007C' C021' F01E'        	movff	(c:___ftadd@f2+2),(c:?___ftadd+2)
  5611  0080' D0DB               	goto	l393
  5612                           opt subtitle "HI-TECH Software Omniscient Code Generator (Lite mode) build 49521"
  5613  0082'                    l390:
  5614                           opt subtitle "HI-TECH Software Omniscient Code Generator (Lite mode) build 49521"
  5615                           
  5616  0082'                    l1921:
  5617  0082' 5028'              	movf	((c:___ftadd@exp2)),c,w
  5618  0084' B4D8               	btfsc	status,2
  5619  0086' D001               	goto	u971
  5620  0088' D001               	goto	u970
  5621  008A'                    u971:
  5622  008A' D00F               	goto	l396
  5623  008C'                    u970:
  5624                           opt subtitle "HI-TECH Software Omniscient Code Generator (Lite mode) build 49521"
  5625  008C'                    l1923:
  5626  008C' 5029'              	movf	((c:___ftadd@exp1)),c,w
  5627  008E' 6028'              	cpfslt	((c:___ftadd@exp2)),c
  5628  0090' D001               	goto	u981
  5629  0092' D001               	goto	u980
  5630  0094'                    u981:
  5631  0094' D011               	goto	l1927
  5632  0096'                    u980:
  5633                           opt subtitle "HI-TECH Software Omniscient Code Generator (Lite mode) build 49521"
  5634  0096'                    l1925:
  5635  0096' 5028'              	movf	((c:___ftadd@exp2)),c,w
  5636  0098' 0800               	sublw	0
  5637  009A' 2429'              	addwf	((c:___ftadd@exp1)),c,w
  5638  009C' 6E00'              	movwf	(??___ftadd+0+0)&0ffh,c
  5639  009E' 0E19               	movlw	(019h)&0ffh
  5640  00A0' 5C22'              	subwf	((??___ftadd+0+0)),c,w
  5641  00A2' A0D8               	btfss	status,0
  5642  00A4' D001               	goto	u991
  5643  00A6' D001               	goto	u990
  5644  00A8'                    u991:
  5645  00A8' D007               	goto	l1927
  5646  00AA'                    u990:
  5647                           opt subtitle "HI-TECH Software Omniscient Code Generator (Lite mode) build 49521"
  5648  00AA'                    l396:
  5649                           opt subtitle "HI-TECH Software Omniscient Code Generator (Lite mode) build 49521"
  5650  00AA' C01C' F01C'        	movff	(c:___ftadd@f1),(c:?___ftadd)
  5651  00AE' C01D' F01D'        	movff	(c:___ftadd@f1+1),(c:?___ftadd+1)
  5652  00B2' C01E' F01E'        	movff	(c:___ftadd@f1+2),(c:?___ftadd+2)
  5653  00B6' D0C0               	goto	l393
  5654                           opt subtitle "HI-TECH Software Omniscient Code Generator (Lite mode) build 49521"
  5655  00B8'                    l394:
  5656                           opt subtitle "HI-TECH Software Omniscient Code Generator (Lite mode) build 49521"
  5657                           
  5658  00B8'                    l1927:
  5659  00B8' 6E00'              	movwf	(??___ftadd+0+0)&0ffh,c
  5660  00BA' 0E06               	movlw	low(06h)
  5661  00BC' 6E27'              	movwf	((c:___ftadd@sign)),c
  5662  00BE' 5000'              	movf	(??___ftadd+0+0)&0ffh,c,w
  5663                           opt subtitle "HI-TECH Software Omniscient Code Generator (Lite mode) build 49521"
  5664                           
  5665  00C0'                    l1929:
  5666                           opt subtitle "HI-TECH Software Omniscient Code Generator (Lite mode) build 49521"
  5667  00C0' AE1E'              	btfss	((c:___ftadd@f1+2)),c,(23)&7
  5668  00C2' D001               	goto	u1001
  5669  00C4' D001               	goto	u1000
  5670  00C6'                    u1001:
  5671  00C6' D002               	goto	l1933
  5672  00C8'                    u1000:
  5673                           opt subtitle "HI-TECH Software Omniscient Code Generator (Lite mode) build 49521"
  5674                           
  5675  00C8'                    l1931:
  5676  00C8' 8E27'              	bsf	(0+(7/8)+(c:___ftadd@sign)),c,(7)&7
  5677  00CA' D000               	goto	l1933
  5678                           opt subtitle "HI-TECH Software Omniscient Code Generator (Lite mode) build 49521"
  5679  00CC'                    l397:
  5680                           opt subtitle "HI-TECH Software Omniscient Code Generator (Lite mode) build 49521"
  5681                           
  5682  00CC'                    l1933:
  5683                           opt subtitle "HI-TECH Software Omniscient Code Generator (Lite mode) build 49521"
  5684  00CC' AE21'              	btfss	((c:___ftadd@f2+2)),c,(23)&7
  5685  00CE' D001               	goto	u1011
  5686  00D0' D001               	goto	u1010
  5687  00D2'                    u1011:
  5688  00D2' D001               	goto	l398
  5689  00D4'                    u1010:
  5690                           opt subtitle "HI-TECH Software Omniscient Code Generator (Lite mode) build 49521"
  5691                           
  5692  00D4'                    l1935:
  5693  00D4' 8C27'              	bsf	(0+(6/8)+(c:___ftadd@sign)),c,(6)&7
  5694                           opt subtitle "HI-TECH Software Omniscient Code Generator (Lite mode) build 49521"
  5695  00D6'                    l398:
  5696                           opt subtitle "HI-TECH Software Omniscient Code Generator (Lite mode) build 49521"
  5697  00D6' 8E1D'              	bsf	(0+(15/8)+(c:___ftadd@f1)),c,(15)&7
  5698                           opt subtitle "HI-TECH Software Omniscient Code Generator (Lite mode) build 49521"
  5699                           
  5700  00D8'                    l1937:
  5701  00D8' 0EFF               	movlw	low(0FFFFh)
  5702  00DA' 161C'              	andwf	((c:___ftadd@f1)),c
  5703  00DC' 0EFF               	movlw	high(0FFFFh)
  5704  00DE' 161D'              	andwf	((c:___ftadd@f1+1)),c
  5705  00E0' 0E00               	movlw	low highword(0FFFFh)
  5706  00E2' 161E'              	andwf	((c:___ftadd@f1+2)),c
  5707                           opt subtitle "HI-TECH Software Omniscient Code Generator (Lite mode) build 49521"
  5708                           
  5709  00E4' 8E20'              	bsf	(0+(15/8)+(c:___ftadd@f2)),c,(15)&7
  5710                           opt subtitle "HI-TECH Software Omniscient Code Generator (Lite mode) build 49521"
  5711                           
  5712  00E6'                    l1939:
  5713  00E6' 0EFF               	movlw	low(0FFFFh)
  5714  00E8' 161F'              	andwf	((c:___ftadd@f2)),c
  5715  00EA' 0EFF               	movlw	high(0FFFFh)
  5716  00EC' 1620'              	andwf	((c:___ftadd@f2+1)),c
  5717  00EE' 0E00               	movlw	low highword(0FFFFh)
  5718  00F0' 1621'              	andwf	((c:___ftadd@f2+2)),c
  5719                           opt subtitle "HI-TECH Software Omniscient Code Generator (Lite mode) build 49521"
  5720                           
  5721                           opt pagewidth 120
  5722  00F2'                    l1941:
  5723  00F2' 5028'              	movf	((c:___ftadd@exp2)),c,w
  5724  00F4' 6029'              	cpfslt	((c:___ftadd@exp1)),c
  5725  00F6' D001               	goto	u1021
  5726  00F8' D001               	goto	u1020
  5727  00FA'                    u1021:
  5728  00FA' D023               	goto	l1953
  5729  00FC'                    u1020:
  5730  00FC' D000               	goto	l1943
  5731                           opt subtitle "HI-TECH Software Omniscient Code Generator (Lite mode) build 49521"
  5732                           
  5733  00FE'                    l400:
  5734                           opt subtitle "HI-TECH Software Omniscient Code Generator (Lite mode) build 49521"
  5735                           
  5736  00FE'                    l1943:
  5737  00FE' 90D8               	bcf	status,0
  5738  0100' 361F'              	rlcf	((c:___ftadd@f2)),c
  5739  0102' 3620'              	rlcf	((c:___ftadd@f2+1)),c
  5740  0104' 3621'              	rlcf	((c:___ftadd@f2+2)),c
  5741                           opt subtitle "HI-TECH Software Omniscient Code Generator (Lite mode) build 49521"
  5742  0106' 0628'              	decf	((c:___ftadd@exp2)),c
  5743                           opt subtitle "HI-TECH Software Omniscient Code Generator (Lite mode) build 49521"
  5744                           
  5745  0108'                    l1945:
  5746  0108' 5028'              	movf	((c:___ftadd@exp2)),c,w
  5747  010A' 1829'              	xorwf	((c:___ftadd@exp1)),c,w
  5748  010C' B4D8               	btfsc	status,2
  5749  010E' D001               	goto	u1031
  5750  0110' D001               	goto	u1030
  5751  0112'                    u1031:
  5752  0112' D010               	goto	l1951
  5753  0114'                    u1030:
  5754                           opt subtitle "HI-TECH Software Omniscient Code Generator (Lite mode) build 49521"
  5755  0114'                    l1947:
  5756  0114' 0627'              	decf	((c:___ftadd@sign)),c
  5757  0116' 5000'              	movf	((c:___ftadd@sign))&0ffh,w
  5758  0118' 0B07               	andlw	low(07h)
  5759  011A' A4D8               	btfss	status,2
  5760  011C' D001               	goto	u1041
  5761  011E' D001               	goto	u1040
  5762  0120'                    u1041:
  5763  0120' D7EE               	goto	l1943
  5764  0122'                    u1040:
  5765  0122' D008               	goto	l1951
  5766                           opt subtitle "HI-TECH Software Omniscient Code Generator (Lite mode) build 49521"
  5767  0124'                    l402:
  5768  0124' D007               	goto	l1951
  5769                           opt subtitle "HI-TECH Software Omniscient Code Generator (Lite mode) build 49521"
  5770  0126'                    l403:
  5771                           opt subtitle "HI-TECH Software Omniscient Code Generator (Lite mode) build 49521"
  5772  0126' D006               	goto	l1951
  5773                           opt subtitle "HI-TECH Software Omniscient Code Generator (Lite mode) build 49521"
  5774  0128'                    l405:
  5775                           opt subtitle "HI-TECH Software Omniscient Code Generator (Lite mode) build 49521"
  5776                           
  5777  0128'                    l1949:
  5778  0128' 90D8               	bcf	status,0
  5779  012A' 321E'              	rrcf	((c:___ftadd@f1+2)),c
  5780  012C' 321D'              	rrcf	((c:___ftadd@f1+1)),c
  5781  012E' 321C'              	rrcf	((c:___ftadd@f1)),c
  5782                           opt subtitle "HI-TECH Software Omniscient Code Generator (Lite mode) build 49521"
  5783  0130' 2A29'              	incf	((c:___ftadd@exp1)),c
  5784  0132' D000               	goto	l1951
  5785                           opt subtitle "HI-TECH Software Omniscient Code Generator (Lite mode) build 49521"
  5786                           
  5787  0134'                    l404:
  5788                           opt subtitle "HI-TECH Software Omniscient Code Generator (Lite mode) build 49521"
  5789                           
  5790  0134'                    l1951:
  5791  0134' 5028'              	movf	((c:___ftadd@exp2)),c,w
  5792  0136' 6229'              	cpfseq	((c:___ftadd@exp1)),c
  5793  0138' D001               	goto	u1051
  5794  013A' D001               	goto	u1050
  5795  013C'                    u1051:
  5796  013C' D7F5               	goto	l1949
  5797  013E'                    u1050:
  5798  013E' D029               	goto	l407
  5799                           opt subtitle "HI-TECH Software Omniscient Code Generator (Lite mode) build 49521"
  5800  0140'                    l406:
  5801                           opt subtitle "HI-TECH Software Omniscient Code Generator (Lite mode) build 49521"
  5802  0140' D028               	goto	l407
  5803                           opt subtitle "HI-TECH Software Omniscient Code Generator (Lite mode) build 49521"
  5804  0142'                    l399:
  5805                           opt subtitle "HI-TECH Software Omniscient Code Generator (Lite mode) build 49521"
  5806  0142'                    l1953:
  5807  0142' 5029'              	movf	((c:___ftadd@exp1)),c,w
  5808  0144' 6028'              	cpfslt	((c:___ftadd@exp2)),c
  5809  0146' D001               	goto	u1061
  5810  0148' D001               	goto	u1060
  5811  014A'                    u1061:
  5812  014A' D023               	goto	l407
  5813  014C'                    u1060:
  5814  014C' D000               	goto	l1955
  5815                           opt subtitle "HI-TECH Software Omniscient Code Generator (Lite mode) build 49521"
  5816                           
  5817  014E'                    l409:
  5818                           opt subtitle "HI-TECH Software Omniscient Code Generator (Lite mode) build 49521"
  5819                           
  5820  014E'                    l1955:
  5821  014E' 90D8               	bcf	status,0
  5822  0150' 361C'              	rlcf	((c:___ftadd@f1)),c
  5823  0152' 361D'              	rlcf	((c:___ftadd@f1+1)),c
  5824  0154' 361E'              	rlcf	((c:___ftadd@f1+2)),c
  5825                           opt subtitle "HI-TECH Software Omniscient Code Generator (Lite mode) build 49521"
  5826  0156' 0629'              	decf	((c:___ftadd@exp1)),c
  5827                           opt subtitle "HI-TECH Software Omniscient Code Generator (Lite mode) build 49521"
  5828                           
  5829  0158'                    l1957:
  5830  0158' 5028'              	movf	((c:___ftadd@exp2)),c,w
  5831  015A' 1829'              	xorwf	((c:___ftadd@exp1)),c,w
  5832  015C' B4D8               	btfsc	status,2
  5833  015E' D001               	goto	u1071
  5834  0160' D001               	goto	u1070
  5835  0162'                    u1071:
  5836  0162' D010               	goto	l1963
  5837  0164'                    u1070:
  5838                           opt subtitle "HI-TECH Software Omniscient Code Generator (Lite mode) build 49521"
  5839  0164'                    l1959:
  5840  0164' 0627'              	decf	((c:___ftadd@sign)),c
  5841  0166' 5000'              	movf	((c:___ftadd@sign))&0ffh,w
  5842  0168' 0B07               	andlw	low(07h)
  5843  016A' A4D8               	btfss	status,2
  5844  016C' D001               	goto	u1081
  5845  016E' D001               	goto	u1080
  5846  0170'                    u1081:
  5847  0170' D7EE               	goto	l1955
  5848  0172'                    u1080:
  5849  0172' D008               	goto	l1963
  5850                           opt subtitle "HI-TECH Software Omniscient Code Generator (Lite mode) build 49521"
  5851  0174'                    l411:
  5852  0174' D007               	goto	l1963
  5853                           opt subtitle "HI-TECH Software Omniscient Code Generator (Lite mode) build 49521"
  5854  0176'                    l412:
  5855                           opt subtitle "HI-TECH Software Omniscient Code Generator (Lite mode) build 49521"
  5856  0176' D006               	goto	l1963
  5857                           opt subtitle "HI-TECH Software Omniscient Code Generator (Lite mode) build 49521"
  5858  0178'                    l414:
  5859                           opt subtitle "HI-TECH Software Omniscient Code Generator (Lite mode) build 49521"
  5860                           
  5861  0178'                    l1961:
  5862  0178' 90D8               	bcf	status,0
  5863  017A' 3221'              	rrcf	((c:___ftadd@f2+2)),c
  5864  017C' 3220'              	rrcf	((c:___ftadd@f2+1)),c
  5865  017E' 321F'              	rrcf	((c:___ftadd@f2)),c
  5866                           opt subtitle "HI-TECH Software Omniscient Code Generator (Lite mode) build 49521"
  5867  0180' 2A28'              	incf	((c:___ftadd@exp2)),c
  5868  0182' D000               	goto	l1963
  5869                           opt subtitle "HI-TECH Software Omniscient Code Generator (Lite mode) build 49521"
  5870                           
  5871  0184'                    l413:
  5872                           opt subtitle "HI-TECH Software Omniscient Code Generator (Lite mode) build 49521"
  5873                           
  5874  0184'                    l1963:
  5875  0184' 5028'              	movf	((c:___ftadd@exp2)),c,w
  5876  0186' 6229'              	cpfseq	((c:___ftadd@exp1)),c
  5877  0188' D001               	goto	u1091
  5878  018A' D001               	goto	u1090
  5879  018C'                    u1091:
  5880  018C' D7F5               	goto	l1961
  5881  018E'                    u1090:
  5882  018E' D001               	goto	l407
  5883                           opt subtitle "HI-TECH Software Omniscient Code Generator (Lite mode) build 49521"
  5884  0190'                    l415:
  5885  0190' D000               	goto	l407
  5886                           opt subtitle "HI-TECH Software Omniscient Code Generator (Lite mode) build 49521"
  5887                           
  5888  0192'                    l408:
  5889                           opt subtitle "HI-TECH Software Omniscient Code Generator (Lite mode) build 49521"
  5890                           
  5891  0192'                    l407:
  5892                           opt subtitle "HI-TECH Software Omniscient Code Generator (Lite mode) build 49521"
  5893  0192' AE27'              	btfss	((c:___ftadd@sign)),c,(7)&7
  5894  0194' D001               	goto	u1101
  5895  0196' D001               	goto	u1100
  5896  0198'                    u1101:
  5897  0198' D00C               	goto	l416
  5898  019A'                    u1100:
  5899                           opt subtitle "HI-TECH Software Omniscient Code Generator (Lite mode) build 49521"
  5900                           
  5901  019A'                    l1965:
  5902  019A' 0EFF               	movlw	low(0FFFFFFh)
  5903  019C' 1A1C'              	xorwf	((c:___ftadd@f1)),c
  5904  019E' 0EFF               	movlw	high(0FFFFFFh)
  5905  01A0' 1A1D'              	xorwf	((c:___ftadd@f1+1)),c
  5906  01A2' 0EFF               	movlw	low highword(0FFFFFFh)
  5907  01A4' 1A1E'              	xorwf	((c:___ftadd@f1+2)),c
  5908                           opt subtitle "HI-TECH Software Omniscient Code Generator (Lite mode) build 49521"
  5909                           
  5910  01A6' 0E01               	movlw	low(01h)
  5911  01A8' 261C'              	addwf	((c:___ftadd@f1)),c
  5912  01AA' 0E00               	movlw	high(01h)
  5913  01AC' 221D'              	addwfc	((c:___ftadd@f1+1)),c
  5914  01AE' 0E00               	movlw	low highword(01h)
  5915  01B0' 221E'              	addwfc	((c:___ftadd@f1+2)),c
  5916                           opt subtitle "HI-TECH Software Omniscient Code Generator (Lite mode) build 49521"
  5917                           
  5918                           opt pagewidth 120
  5919  01B2'                    l416:
  5920                           opt subtitle "HI-TECH Software Omniscient Code Generator (Lite mode) build 49521"
  5921                           
  5922  01B2' AC27'              	btfss	((c:___ftadd@sign)),c,(6)&7
  5923  01B4' D001               	goto	u1111
  5924  01B6' D001               	goto	u1110
  5925  01B8'                    u1111:
  5926  01B8' D00D               	goto	l1969
  5927  01BA'                    u1110:
  5928                           opt subtitle "HI-TECH Software Omniscient Code Generator (Lite mode) build 49521"
  5929                           
  5930  01BA'                    l1967:
  5931  01BA' 0EFF               	movlw	low(0FFFFFFh)
  5932  01BC' 1A1F'              	xorwf	((c:___ftadd@f2)),c
  5933  01BE' 0EFF               	movlw	high(0FFFFFFh)
  5934  01C0' 1A20'              	xorwf	((c:___ftadd@f2+1)),c
  5935  01C2' 0EFF               	movlw	low highword(0FFFFFFh)
  5936  01C4' 1A21'              	xorwf	((c:___ftadd@f2+2)),c
  5937                           opt subtitle "HI-TECH Software Omniscient Code Generator (Lite mode) build 49521"
  5938                           
  5939  01C6' 0E01               	movlw	low(01h)
  5940  01C8' 261F'              	addwf	((c:___ftadd@f2)),c
  5941  01CA' 0E00               	movlw	high(01h)
  5942  01CC' 2220'              	addwfc	((c:___ftadd@f2+1)),c
  5943  01CE' 0E00               	movlw	low highword(01h)
  5944  01D0' 2221'              	addwfc	((c:___ftadd@f2+2)),c
  5945                           opt subtitle "HI-TECH Software Omniscient Code Generator (Lite mode) build 49521"
  5946  01D2' D000               	goto	l1969
  5947                           opt subtitle "HI-TECH Software Omniscient Code Generator (Lite mode) build 49521"
  5948                           
  5949  01D4'                    l417:
  5950                           opt subtitle "HI-TECH Software Omniscient Code Generator (Lite mode) build 49521"
  5951                           
  5952  01D4'                    l1969:
  5953  01D4' 6E00'              	movwf	(??___ftadd+0+0)&0ffh,c
  5954  01D6' 0E00               	movlw	low(0)
  5955  01D8' 6E27'              	movwf	((c:___ftadd@sign)),c
  5956  01DA' 5000'              	movf	(??___ftadd+0+0)&0ffh,c,w
  5957                           opt subtitle "HI-TECH Software Omniscient Code Generator (Lite mode) build 49521"
  5958                           
  5959  01DC'                    l1971:
  5960  01DC' 501C'              	movf	((c:___ftadd@f1)),c,w
  5961  01DE' 261F'              	addwf	((c:___ftadd@f2)),c
  5962  01E0' 501D'              	movf	((c:___ftadd@f1+1)),c,w
  5963  01E2' 2220'              	addwfc	((c:___ftadd@f2+1)),c
  5964  01E4' 501E'              	movf	((c:___ftadd@f1+2)),c,w
  5965  01E6' 2221'              	addwfc	((c:___ftadd@f2+2)),c
  5966                           opt subtitle "HI-TECH Software Omniscient Code Generator (Lite mode) build 49521"
  5967                           
  5968                           opt pagewidth 120
  5969  01E8'                    l1973:
  5970                           opt subtitle "HI-TECH Software Omniscient Code Generator (Lite mode) build 49521"
  5971  01E8' AE21'              	btfss	((c:___ftadd@f2+2)),c,(23)&7
  5972  01EA' D001               	goto	u1121
  5973  01EC' D001               	goto	u1120
  5974  01EE'                    u1121:
  5975  01EE' D011               	goto	l1979
  5976  01F0'                    u1120:
  5977                           opt subtitle "HI-TECH Software Omniscient Code Generator (Lite mode) build 49521"
  5978                           
  5979  01F0'                    l1975:
  5980  01F0' 0EFF               	movlw	low(0FFFFFFh)
  5981  01F2' 1A1F'              	xorwf	((c:___ftadd@f2)),c
  5982  01F4' 0EFF               	movlw	high(0FFFFFFh)
  5983  01F6' 1A20'              	xorwf	((c:___ftadd@f2+1)),c
  5984  01F8' 0EFF               	movlw	low highword(0FFFFFFh)
  5985  01FA' 1A21'              	xorwf	((c:___ftadd@f2+2)),c
  5986                           opt subtitle "HI-TECH Software Omniscient Code Generator (Lite mode) build 49521"
  5987                           
  5988  01FC' 0E01               	movlw	low(01h)
  5989  01FE' 261F'              	addwf	((c:___ftadd@f2)),c
  5990  0200' 0E00               	movlw	high(01h)
  5991  0202' 2220'              	addwfc	((c:___ftadd@f2+1)),c
  5992  0204' 0E00               	movlw	low highword(01h)
  5993  0206' 2221'              	addwfc	((c:___ftadd@f2+2)),c
  5994                           opt subtitle "HI-TECH Software Omniscient Code Generator (Lite mode) build 49521"
  5995                           
  5996                           opt pagewidth 120
  5997  0208'                    l1977:
  5998  0208' 6E00'              	movwf	(??___ftadd+0+0)&0ffh,c
  5999  020A' 0E01               	movlw	low(01h)
  6000  020C' 6E27'              	movwf	((c:___ftadd@sign)),c
  6001  020E' 5000'              	movf	(??___ftadd+0+0)&0ffh,c,w
  6002  0210' D000               	goto	l1979
  6003                           opt subtitle "HI-TECH Software Omniscient Code Generator (Lite mode) build 49521"
  6004                           
  6005  0212'                    l418:
  6006                           opt subtitle "HI-TECH Software Omniscient Code Generator (Lite mode) build 49521"
  6007                           
  6008  0212'                    l1979:
  6009  0212' C01F' F000'        	movff	(c:___ftadd@f2),(c:?___ftpack)
  6010  0216' C020' F001'        	movff	(c:___ftadd@f2+1),(c:?___ftpack+1)
  6011  021A' C021' F002'        	movff	(c:___ftadd@f2+2),(c:?___ftpack+2)
  6012  021E' C029' F003'        	movff	(c:___ftadd@exp1),0+((c:?___ftpack)+03h)
  6013  0222' C027' F004'        	movff	(c:___ftadd@sign),0+((c:?___ftpack)+04h)
  6014  0226' EC00' F000'        	call	___ftpack	;wreg free
  6015  022A' C000' F01C'        	movff	0+?___ftpack,(c:?___ftadd)
  6016  022E' C001' F01D'        	movff	1+?___ftpack,(c:?___ftadd+1)
  6017  0232' C002' F01E'        	movff	2+?___ftpack,(c:?___ftadd+2)
  6018  0236' D000               	goto	l393
  6019                           opt subtitle "HI-TECH Software Omniscient Code Generator (Lite mode) build 49521"
  6020  0238'                    l1981:
  6021                           opt subtitle "HI-TECH Software Omniscient Code Generator (Lite mode) build 49521"
  6022                           
  6023  0238'                    l393:
  6024  0238' 0012               	return
  6025                           opt subtitle "HI-TECH Software Omniscient Code Generator (Lite mode) build 49521"
  6026                           
  6027  023A'                    	__end_of___ftadd:
  6028                           opt subtitle "HI-TECH Software Omniscient Code Generator (Lite mode) build 49521"
  6029                           
  6030  0000                     __activetblptr	EQU	0
  6031                           opt subtitle "HI-TECH Software Omniscient Code Generator (Lite mode) build 49521"
  6032                           
  6033                           opt pagewidth 120
  6034  0000'                    __ptext18:
  6035                           opt subtitle "HI-TECH Software Omniscient Code Generator (Lite mode) build 49521"
  6036                           
  6037                           opt pagewidth 120
  6038                           
  6039                           	opt lm
  6040  0000                     __Lparam	EQU	__Lrparam
  6041  0000                     __Hparam	EQU	__Hrparam


Data Sizes:
    Strings     0
    Constant    0
    Data        0
    BSS         10
    Persistent  0
    Stack       0

Auto Spaces:
    Space          Size  Autos    Used
    COMRAM           95     93      93
    BANK0           160     66      76
    BANK1           256      0       0
    BANK2           256      0       0
    BANK3           256      0       0
    BANK4           256      0       0
    BANK5           256      0       0
    BANK6           256      0       0
    BANK7           256      0       0

Pointer List with Targets:

    NULL.setpoint	PTR float  size(2) Largest target is 0

    NULL.output	PTR float  size(2) Largest target is 0

    NULL.input	PTR float  size(2) Largest target is 0

    ?___ftpack	float  size(2) Largest target is 4
		 -> pid_sample@time(COMRAM[4]), 

    ?___ftdiv	float  size(2) Largest target is 0

    ?___lltoft	float  size(2) Largest target is 0

    ?___asftadd	float  size(2) Largest target is 0

    ?___ftmul	float  size(2) Largest target is 0

    ?___ftadd	float  size(2) Largest target is 0

    ?___ftneg	float  size(2) Largest target is 0

    ?_tick_get	unsigned long  size(2) Largest target is 0

    ?___awtoft	float  size(2) Largest target is 0

    ?_pid_create	PTR struct pid_controller size(2) Largest target is 40
		 -> main@pidcontrol1(BANK0[37]), 

    __asftadd@f1p	PTR float  size(2) Largest target is 40
		 -> main@pidcontrol1(BANK0[37]), NULL(NULL[0]), 

    pid_direction@pid.setpoint	PTR float  size(2) Largest target is 3
		 -> main@setpoint(BANK0[3]), 

    pid_direction@pid.output	PTR float  size(2) Largest target is 3
		 -> main@output(BANK0[3]), 

    pid_direction@pid.input	PTR float  size(2) Largest target is 3
		 -> main@input1(BANK0[3]), 

    pid_direction@pid	PTR struct pid_controller size(2) Largest target is 40
		 -> main@pidcontrol1(BANK0[37]), 

    pid_auto@pid.setpoint	PTR float  size(2) Largest target is 3
		 -> main@setpoint(BANK0[3]), 

    pid_auto@pid.output	PTR float  size(2) Largest target is 3
		 -> main@output(BANK0[3]), 

    pid_auto@pid.input	PTR float  size(2) Largest target is 3
		 -> main@input1(BANK0[3]), 

    pid_auto@pid	PTR struct pid_controller size(2) Largest target is 40
		 -> main@pidcontrol1(BANK0[37]), NULL(NULL[0]), 

    pid_limits@pid.setpoint	PTR float  size(2) Largest target is 3
		 -> main@setpoint(BANK0[3]), 

    pid_limits@pid.output	PTR float  size(2) Largest target is 3
		 -> main@output(BANK0[3]), 

    pid_limits@pid.input	PTR float  size(2) Largest target is 3
		 -> main@input1(BANK0[3]), 

    pid_limits@pid	PTR struct pid_controller size(2) Largest target is 40
		 -> main@pidcontrol1(BANK0[37]), NULL(NULL[0]), 

    pid_sample@pid.setpoint	PTR float  size(2) Largest target is 3
		 -> main@setpoint(BANK0[3]), 

    pid_sample@pid.output	PTR float  size(2) Largest target is 3
		 -> main@output(BANK0[3]), 

    pid_sample@pid.input	PTR float  size(2) Largest target is 3
		 -> main@input1(BANK0[3]), 

    pid_tune@pid.setpoint	PTR float  size(2) Largest target is 3
		 -> main@setpoint(BANK0[3]), 

    pid_tune@pid.output	PTR float  size(2) Largest target is 3
		 -> main@output(BANK0[3]), 

    pid_tune@pid.input	PTR float  size(2) Largest target is 3
		 -> main@input1(BANK0[3]), 

    pid_tune@pid	PTR struct pid_controller size(2) Largest target is 40
		 -> main@pidcontrol1(BANK0[37]), 

    pid_compute@pid.setpoint	PTR float  size(2) Largest target is 3
		 -> main@setpoint(BANK0[3]), 

    pid_compute@pid.output	PTR float  size(2) Largest target is 3
		 -> main@output(BANK0[3]), 

    pid_compute@pid.input	PTR float  size(2) Largest target is 3
		 -> main@input1(BANK0[3]), 

    pid_compute@pid	PTR struct pid_controller size(2) Largest target is 40
		 -> main@pidcontrol1(BANK0[37]), NULL(NULL[0]), 

    pid_create@set	PTR float  size(2) Largest target is 3
		 -> main@setpoint(BANK0[3]), 

    pid_create@out	PTR float  size(2) Largest target is 3
		 -> main@output(BANK0[3]), 

    pid_create@pid.setpoint	PTR float  size(2) Largest target is 3
		 -> main@setpoint(BANK0[3]), 

    pid_create@pid.output	PTR float  size(2) Largest target is 3
		 -> main@output(BANK0[3]), 

    pid_create@pid.input	PTR float  size(2) Largest target is 3
		 -> main@input1(BANK0[3]), 

    pid_create@in	PTR float  size(2) Largest target is 3
		 -> main@input1(BANK0[3]), 

    pid_create@pid	PTR struct pid_controller size(2) Largest target is 40
		 -> main@pidcontrol1(BANK0[37]), 

    sp__pid_create	PTR struct pid_controller size(2) Largest target is 40
		 -> main@pidcontrol1(BANK0[37]), 

    main@pid2	PTR struct pid_controller size(2) Largest target is 0
		 -> NULL(NULL[0]), 

    main@pid1	PTR struct pid_controller size(2) Largest target is 40
		 -> main@pidcontrol1(BANK0[37]), NULL(NULL[0]), 

    pidcontrol2.setpoint	PTR float  size(2) Largest target is 3
		 -> main@setpoint(BANK0[3]), 

    pidcontrol2.output	PTR float  size(2) Largest target is 3
		 -> main@output(BANK0[3]), 

    pidcontrol2.input	PTR float  size(2) Largest target is 3
		 -> main@input1(BANK0[3]), 

    S24pid_controller$setpoint	PTR float  size(2) Largest target is 3
		 -> main@setpoint(BANK0[3]), 

    pidcontrol1.setpoint	PTR float  size(2) Largest target is 3
		 -> main@setpoint(BANK0[3]), 

    S24pid_controller$output	PTR float  size(2) Largest target is 3
		 -> main@output(BANK0[3]), 

    pidcontrol1.output	PTR float  size(2) Largest target is 3
		 -> main@output(BANK0[3]), 

    S24pid_controller$input	PTR float  size(2) Largest target is 3
		 -> main@input1(BANK0[3]), 

    pidcontrol1.input	PTR float  size(2) Largest target is 3
		 -> main@input1(BANK0[3]), 


Critical Paths under _main in COMRAM

    _main->_pid_compute
    _pid_create->_pid_tune
    _pid_limits->___ftge
    _pid_auto->___ftge
    _pid_compute->___asftadd
    _pid_direction->___ftneg
    _pid_tune->___ftdiv
    ___awtoft->___ftpack
    ___ftdiv->___lltoft
    ___ftmul->___ftneg
    ___ftneg->___ftpack
    ___lltoft->___ftpack
    ___asftadd->___ftadd
    ___ftadd->___ftmul

Critical Paths under _main in BANK0

    None.

Critical Paths under _main in BANK1

    None.

Critical Paths under _main in BANK2

    None.

Critical Paths under _main in BANK3

    None.

Critical Paths under _main in BANK4

    None.

Critical Paths under _main in BANK5

    None.

Critical Paths under _main in BANK6

    None.

Critical Paths under _main in BANK7

    None.

Call Graph Tables:

 ---------------------------------------------------------------------------------
 (Depth) Function   	        Calls       Base Space   Used Autos Params    Refs
 ---------------------------------------------------------------------------------
 (0) _main                                               116   111      5    8397
                                             80 COMRAM    13     8      5
                                              0 BANK0     66    66      0
                            _tc_init
                         _pid_create
                         _pid_limits
                           _pid_auto
                           _tick_get
                            _tc_read
                           ___awtoft
                        _pid_compute
 ---------------------------------------------------------------------------------
 (1) _tc_init                                              2     0      2       0
                                              0 COMRAM     2     0      2
 ---------------------------------------------------------------------------------
 (1) _pid_create                                          25     8     17    2981
                                             48 COMRAM    25     8     17
                         _pid_limits
                      _pid_direction
                           _pid_tune
                           _tick_get
 ---------------------------------------------------------------------------------
 (1) _pid_limits                                          10     2      8     554
                                              9 COMRAM    10     2      8
                             ___ftge
 ---------------------------------------------------------------------------------
 (1) _pid_auto                                             4     2      2     444
                                              9 COMRAM     4     2      2
                             ___ftge
 ---------------------------------------------------------------------------------
 (1) _tc_read                                              4     0      4       0
                                              0 COMRAM     4     0      4
 ---------------------------------------------------------------------------------
 (1) _pid_compute                                         33    31      2    3724
                                             47 COMRAM    33    31      2
                           _tick_get
                            ___ftneg
                            ___ftadd
                            ___ftmul
                          ___asftadd
                             ___ftge
 ---------------------------------------------------------------------------------
 (2) _tick_get                                             4     0      4       0
                                              0 COMRAM     4     0      4
                 _tick_read_internal
 ---------------------------------------------------------------------------------
 (3) _tick_read_internal                                   0     0      0       0
 ---------------------------------------------------------------------------------
 (2) _pid_direction                                        3     0      3     287
                                             11 COMRAM     3     0      3
                            ___ftneg
 ---------------------------------------------------------------------------------
 (2) _pid_tune                                            14     3     11    1766
                                             34 COMRAM    14     3     11
                           ___lltoft
                            ___ftdiv
                            ___ftmul
                            ___ftneg
 ---------------------------------------------------------------------------------
 (1) ___awtoft                                             5     2      3     300
                                              8 COMRAM     5     2      3
                           ___ftpack
                            _tc_read (ARG)
 ---------------------------------------------------------------------------------
 (3) ___ftdiv                                             17    11      6     489
                                             17 COMRAM    17    11      6
                           ___ftpack
                           ___lltoft (ARG)
 ---------------------------------------------------------------------------------
 (2) ___ftge                                               9     3      6     136
                                              0 COMRAM     9     3      6
 ---------------------------------------------------------------------------------
 (2) ___ftmul                                             17    11      6     535
                                             11 COMRAM    17    11      6
                           ___ftpack
                            ___ftneg (ARG)
 ---------------------------------------------------------------------------------
 (2) ___ftneg                                              3     0      3      45
                                              8 COMRAM     3     0      3
                           ___ftpack (ARG)
 ---------------------------------------------------------------------------------
 (3) ___lltoft                                             9     5      4     278
                                              8 COMRAM     9     5      4
                           ___ftpack
 ---------------------------------------------------------------------------------
 (4) ___ftpack                                             8     3      5     209
                                              0 COMRAM     8     3      5
 ---------------------------------------------------------------------------------
 (2) ___asftadd                                            5     0      5    1115
                                             42 COMRAM     5     0      5
                            ___ftadd
                            ___ftmul (ARG)
 ---------------------------------------------------------------------------------
 (3) ___ftadd                                             14     8      6    1049
                                             28 COMRAM    14     8      6
                           ___ftpack
                            ___ftneg (ARG)
                            ___ftmul (ARG)
 ---------------------------------------------------------------------------------
 Estimated maximum stack depth 4
 ---------------------------------------------------------------------------------

 Call Graph Graphs:

 _main (ROOT)
   _tc_init
   _pid_create
     _pid_limits
       ___ftge
     _pid_direction
       ___ftneg
         ___ftpack (ARG)
     _pid_tune
       ___lltoft
         ___ftpack
       ___ftdiv
         ___ftpack
         ___lltoft (ARG)
           ___ftpack
       ___ftmul
         ___ftpack
         ___ftneg (ARG)
           ___ftpack (ARG)
       ___ftneg
         ___ftpack (ARG)
     _tick_get
       _tick_read_internal
   _pid_limits
     ___ftge
   _pid_auto
     ___ftge
   _tick_get
     _tick_read_internal
   _tc_read
   ___awtoft
     ___ftpack
     _tc_read (ARG)
   _pid_compute
     _tick_get
       _tick_read_internal
     ___ftneg
       ___ftpack (ARG)
     ___ftadd
       ___ftpack
       ___ftneg (ARG)
         ___ftpack (ARG)
       ___ftmul (ARG)
         ___ftpack
         ___ftneg (ARG)
           ___ftpack (ARG)
     ___ftmul
       ___ftpack
       ___ftneg (ARG)
         ___ftpack (ARG)
     ___asftadd
       ___ftadd
         ___ftpack
         ___ftneg (ARG)
           ___ftpack (ARG)
         ___ftmul (ARG)
           ___ftpack
           ___ftneg (ARG)
             ___ftpack (ARG)
       ___ftmul (ARG)
         ___ftpack
         ___ftneg (ARG)
           ___ftpack (ARG)
     ___ftge

 Address spaces:
Name               Size   Autos  Total    Cost      Usage
BIGRAM             7FF      0       0      21        0.0%
EEDATA             100      0       0       0        0.0%
BITBANK7           100      0       0      18        0.0%
BANK7              100      0       0      19        0.0%
BITBANK6           100      0       0      16        0.0%
BANK6              100      0       0      17        0.0%
BITBANK5           100      0       0      14        0.0%
BANK5              100      0       0      15        0.0%
BITBANK4           100      0       0      12        0.0%
BANK4              100      0       0      13        0.0%
BITBANK3           100      0       0      10        0.0%
BANK3              100      0       0      11        0.0%
BITBANK2           100      0       0       8        0.0%
BANK2              100      0       0       9        0.0%
BITBANK1           100      0       0       6        0.0%
BANK1              100      0       0       7        0.0%
BITBANK0            A0      0       0       4        0.0%
BANK0               A0     42      4C       5       47.5%
BITCOMRAM           5F      0       0       0        0.0%
COMRAM              5F     5D      5D       1       97.9%
BITSFR               0      0       0      40        0.0%
SFR                  0      0       0      40        0.0%
STACK                0      0       4       2        0.0%
NULL                 0      0       0       0        0.0%
ABS                  0      0      A9      20        0.0%
DATA                 0      0      AD       3        0.0%
CODE                 0      0       0       0        0.0%


Microchip Technology PIC18 Macro Assembler V1.12 build 49521 
Symbol Table                                                                                   Sun Aug 10 03:22:58 2014

               ___asftadd@f2 00002C                ___asftadd@f1p 00002A                           l20 00021A  
                         l17 000154                           l50 000026                           l42 000016  
                         l18 000218                           l51 000028                           l19 00021A  
                         l70 00022C                           l62 000144                           l71 000378  
                         l80 0001D8                           l72 0003C2                           l49 000000  
                         l73 0003C2                           l65 00001A                           l66 000422  
                         l90 0000BE                           l67 000422                           l91 000106  
                         l76 000052                           l68 0001C8                           l92 000104  
                         l69 00022E                           l93 00016A                           l78 000050  
                         l94 0001D0                           l79 0001D8                           l95 0001CE  
                         l87 000028                           l88 0001D2                           l89 0001D2  
                         l98 00015A                           l99 0000E2                pid_create@pid 000030  
              pid_create@set 000036                pid_create@out 000034                 ___ftadd@exp1 000029  
               ___ftadd@exp2 000028                 ___ftadd@sign 000027                          l100 000148  
                        l101 000146                          l102 00015A                          l105 0000D2  
                        l106 0000E2                          l400 0000FE                          l402 000124  
                        l411 000174                          l403 000126                          l412 000176  
                        l404 000134                          l260 000022                          l413 000184  
                        l405 000128                          l261 00004A                          l414 000178  
                        l406 000140                          l415 000190                          l407 000192  
                        l431 000036                          l423 00003E                          l416 0001B2  
                        l408 000192                          l360 00005C                          l352 00002A  
                        l440 00007C                          l432 00006C                          l424 00011C  
                        l417 0001D4                          l409 00014E                          l361 000096  
                        l441 0000B4                          l433 0000A2                          l425 00007C  
                        l418 000212                          l362 0000A4                          l354 00001A  
                        l450 000028                          l442 0000CA                          l426 0000BE  
                        l363 000098                          l355 0000EC                          l443 0000E0  
                        l427 0000E8                          l364 0000AC                          l356 000038  
                        l444 0000EA                          l428 0000F6                          l365 0000B8  
                        l357 00002C                          l525 000018                          l445 000100  
                        l390 000082                          l366 0000DE                          l358 00005A  
                        l526 00000A                          l446 000116                          l438 00003E  
                        l631 00003C                          l359 000074                          l527 000042  
                        l439 00013C                          l392 000074                          l528 00006C  
                        l393 000238                          l449 00001C                          l394 0000B8  
                        l396 0000AA                          l397 0000CC                          l398 0000D6  
                        l399 000142                          u700 000026                          u701 000024  
                        u800 000008                          u801 000006                          u730 00000A  
                        u810 00003E                          u731 000008                          u811 00003C  
                        u740 000018                          u820 000098                          u900 00011E  
                        u741 000016                          u821 000096                          u901 00011C  
                        u750 000058                          u910 000010                          u830 000024  
                        u751 000056                          u911 00000E                          u831 000022  
                        u920 00001E                          u760 000094                          u840 00006E  
                        u761 000092                          u841 00006C                          u930 000044  
                        u770 0000AC                          u850 0000BA                          u771 0000AA  
                        u851 0000B8                          u940 000056                          u780 0000B4  
                        u860 000142                          u941 000054                          u925 000016  
                        u781 0000B2                          u861 000140                          u950 000060  
                        u790 0000DA                          u870 0001A6                          u951 00005E  
                        u935 00003C                          u791 0000D8                          u871 0001A4  
                        u960 000074                          u880 000016                          u961 000072  
                        u881 000014                          u970 00008C                          u890 0000BA  
                        u971 00008A                          u891 0000B8                          u980 000096  
                        u981 000094                          u990 0000AA                          u991 0000A8  
                        fsr2 000FD9                          wreg 000FE8                 ___ftdiv@cntr 00001C  
               ___ftdiv@sign 000021                         l2001 00002E                         l2011 00003E  
                       l2003 0000D2                         l2021 00008E                         l2013 00006C  
                       l2005 000000                         l2101 000000                         l2031 0000A8  
                       l2023 000092                         l2015 00007A                         l2007 00002E  
                       l2111 0000CC                         l2103 000018                         l2041 0000E6  
                       l2033 0000AA                         l2025 000096                         l2017 00007C  
                       l2009 00003C                         l2121 000204                         l2113 000120  
                       l2105 00001A                         l2051 00002E                         l2043 0000F0  
                       l2035 0000B6                         l2027 00009A                         l2019 000088  
                       l2131 00035E                         l2123 00022E                         l2115 000164  
                       l2107 00002E                         l2061 00007C                         l2053 00003C  
                       l2045 0000F6                         l2037 0000C6                         l2029 00009C  
                       l2141 00001A                         l2133 000378                         l2125 000272  
                       l2117 0001A0                         l2109 0000A8                         l2071 00009E  
                       l2063 000082                         l2055 00003E                         l2047 00011C  
                       l2039 0000DA                         l2151 0000E8                         l2143 000034  
                       l2135 0003A8                         l2127 0002FA                         l2119 0001C8  
                       l2081 0000DA                         l2073 0000AA                         l2065 00008E  
                       l2057 00006C                         l2049 000000                         l2153 00011E  
                       l2145 000052                         l2137 000420                         l2129 00032E  
                       l2161 000024                         l2091 000110                         l2083 0000E0  
                       l2075 0000B4                         l2067 000090                         l2059 00007A  
                       l2155 000134                         l2147 00009A                         l2139 000000  
                       l2171 0000A0                         l2163 000038                         l2093 000116  
                       l2085 0000EA                         l2077 0000BC                         l2069 000092  
                       l2149 0000B2                         l2173 0000D0                         l2165 000048  
                       l2157 000000                         l2181 00006A                         l2095 00013C  
                       l2087 0000F2                         l2079 0000CA                         l2175 00013A  
                       l2167 00006C                         l2159 000010                         l2191 00013A  
                       l2183 00008A                         l2097 000000                         l2089 000100  
                       l2177 000144                         l2169 00008C                         l2193 000154  
                       l2185 0000AA                         l2099 00003C                         l1811 00000A  
                       l2195 0001B2                         l2187 00010A                         l2179 000000  
                       l1821 00005C                         l1813 00001A                         l1901 000000  
                       l2197 00020A                         l2189 00012E                         l1831 0000B4  
                       l1823 00005E                         l1815 000028                         l1911 00004A  
                       l1903 000008                         l1921 000082                         l1913 000000  
                       l1841 0000EC                         l1833 0000B8                         l1825 000074  
                       l1817 00002C                         l1809 000000                         l1905 000010  
                       l1931 0000C8                         l1923 00008C                         l1915 00004C  
                       l1835 0000D0                         l1827 000098                         l1819 000038  
                       l1851 00006C                         l1843 000000                         l1907 000018  
                       l1941 0000F2                         l1933 0000CC                         l1925 000096  
                       l1917 000056                         l1837 0000DA                         l1829 0000A4  
                       l1853 000078                         l1845 000008                         l1909 000022  
                       l1861 000000                         l1951 000134                         l1943 0000FE  
                       l1935 0000D4                         l1927 0000B8                         l1919 000060  
                       l1839 0000DE                         l1855 000098                         l1847 000036  
                       l1871 0000BE                         l1863 000026                         l1961 000178  
                       l1945 000108                         l1953 000142                         l1937 0000D8  
                       l1929 0000C0                         l1857 00009C                         l1849 00003E  
                       l1881 000000                         l1873 000106                         l1865 000028  
                       l1971 0001DC                         l1963 000184                         l1955 00014E  
                       l1947 000114                         l1939 0000E6                         l1859 0000A2  
                       l1795 00009C                         l1891 00011E                         l1883 000016  
                       l1875 000142                         l1867 00006E                         l1981 000238  
                       l1973 0001E8                         l1965 00019A                         l1957 000158  
                       l1949 000128                         l1797 0000A0                         l1893 000148  
                       l1885 00007E                         l1877 00016A                         l1869 0000BC  
                       l1975 0001F0                         l1967 0001BA                         l1959 000164  
                       l1991 000018                         l1983 000000                         l1895 000000  
                       l1887 0000BA                         l1879 0001A6                         l1977 000208  
                       l1969 0001D4                         l1993 000042                         l1985 000010  
                       l1897 000004                         l1889 0000E2                         l1979 000212  
                       l1995 00006C                         l1987 000000                         l1899 000016  
                       l1989 00000A                         l1997 000000                         l1999 000016  
              pid_compute@in 00004A                         u1000 0000C8                         u1001 0000C6  
                       u1010 0000D4                         u1011 0000D2                         u1100 00019A  
                       u1020 0000FC                         u1101 000198                         u1021 0000FA  
                       u1110 0001BA                         u1030 000114                         u1111 0001B8  
                       u1031 000112                         u1120 0001F0                         u1040 000122  
                       u1200 00006C                         u1121 0001EE                         u1041 000120  
                       u1201 00006A                         u1050 00013E                         u1130 000010  
                       u1210 0000DA                         u1051 00013C                         u1131 00000E  
                       u1211 0000D8                         u1060 00014C                         u1140 000040  
                       u1220 00001E                         u1300 0001A0                         u1061 00014A  
                       u1141 00003E                         u1301 00019E                         u1070 000164  
                       u1230 00002E                         u1150 000016                         u1310 000204  
                       u1071 000162                         u1231 00002C                         u1151 000014  
                       u1311 000202                         u1080 000172                         u1240 00005C  
                       u1160 00002E                         u1320 00035E                         u1081 000170  
                       u1225 000016                         u1161 00002C                         u1321 00035C  
                       u1090 00018E                         u1250 00006C                         u1170 00001E  
                       u1330 0003A8                         u1091 00018C                         u1251 00006A  
                       u1331 0003A6                         u1260 0000BC                         u1180 00002E  
                       u1340 00001A                         u1261 0000BA                         u1245 000054  
                       u1181 00002C                         u1341 000018                         u1270 0000F2  
                       u1190 00005C                         u1350 000034                         u1271 0000F0  
                       u1175 000016                         u1351 000032                         u1360 00004E  
                       u1280 000016                         u1361 00004C                         u1345 000012  
                       u1281 000014                         u1370 000134                         u1290 0000A8  
                       u1195 000054                         u1371 000132                         u1355 00002C  
                       u1291 0000A6                         u1380 0001B2                         u1365 000046  
                       u1381 0001B0                  main@lastrun 000005                         _main 000000  
               ___ftpack@arg 000000                 ___ftpack@exp 000003                         fsr1h 000FE2  
                       fsr2h 000FDA                         fsr1l 000FE1                         indf2 000FDF  
                       fsr2l 000FD9                         start 000000*                ___ftmul@cntr 00001A  
               ___ftmul@sign 00001B                pid_limits@max 00000E                pid_limits@min 00000B  
              pid_limits@pid 000009                        ?_main 000050              __end_of___ftadd 00023A  
            __end_of___ftdiv 00011E              __end_of___ftneg 00002A               pid_compute@pid 00002F  
            __end_of___ftmul 00013E                        _T0CON 000FD5               pid_compute@now 000043  
             pid_compute@out 00004D                        _TMR0H 000FD7                        _TMR0L 000FD6  
               ___lltoft@exp 000010                ___awtoft@sign 00000C                ___ftpack@sign 000004  
__size_of_tick_read_internal 000000                 ?_pid_compute 00002F                 main@setpoint 000011  
                      status 000FD8              __initialization 000000                 __end_of_main 00021E  
     pid_direction@direction 00000D                       ??_main 000055                __activetblptr 000000  
           pid_direction@pid 00000B             __end_of___awtoft 00004C             __end_of___ftpack 0000EE  
           __end_of___lltoft 00006E                       ___ftge 000000                    ??___ftadd 000022  
                  ??___ftdiv 000017                    ??___ftneg 00000B                    ??___ftmul 000011  
                     clear_0 000006             __end_of_pid_auto 00015C             __end_of_pid_tune 0001DA  
      ___ftmul@f3_as_product 000017             __end_of_tick_get 000018                    ??_tc_init 000002  
                  ??_tc_read 000004           __size_of___asftadd 000000                   __accesstop 000000* 
    __end_of__initialization 00000C                   ___ftadd@f1 00001C                   ___ftadd@f2 00001F  
                 ___ftge@ff1 000000                   ___ftge@ff2 000003                   ___ftdiv@f1 000011  
                 ___ftdiv@f2 000014                   ___ftdiv@f3 00001D                  pid_auto@pid 000009  
                 ___ftneg@f1 000008                   ___awtoft@c 000008                   ___ftmul@f1 00000B  
                 ___ftmul@f2 00000E               __pcstackCOMRAM 000000                   ___lltoft@c 000008  
     __size_of_pid_direction 000000                  pid_tune@pid 000022                   __pbssBANK0 000000  
       __size_of_pid_compute 000000                      ?___ftge 000000            __end_of___asftadd 00003E  
                  ?___awtoft 000008                    ?___ftpack 000000                    ?___lltoft 000008  
           pid_compute@error 000047                _pid_direction 000000                    ?_pid_auto 000009  
                  ?_pid_tune 000022                      __Hparam 000000                      __Lparam 000000  
                  ?_tick_get 000000              __size_of___ftge 000000                      ___ftadd 000000  
                    ___ftdiv 000000                      ___ftneg 000000                      ___ftmul 000000  
                    __pcinit 000000                   ??___awtoft 00000B                   ??___ftpack 000005  
                    __ramtop 000000*                  ??___lltoft 00000C                      __ptext0 000000  
                    __ptext1 000000                      __ptext2 000000                      __ptext3 000000  
                    __ptext4 000000                      __ptext5 000000                      __ptext6 000000  
                    __ptext7 000000                      __ptext8 000000                      __ptext9 000000  
                 _pid_create 000000                   _pid_limits 000000                      _tc_init 000000* 
                    _tc_read 000000*                     _tickcnt 000006   __end_of_tick_read_internal 00002A  
             ?_pid_direction 00000B                      main@spi 00001A         end_of_initialization 00000C  
                 ??_pid_auto 00000B                   ??_pid_tune 00002D                   ??_tick_get 000004  
                 _tickbuffer 000000                      postdec1 000FE5                      postdec2 000FDD  
                    postinc0 000FEE                      postinc1 000FE6                      postinc2 000FDE  
               pid_create@kd 00003E                 pid_create@ki 00003B                 pid_create@in 000032  
               pid_create@kp 000038                  ___ftdiv@exp 000020                   main@input1 000014  
                 main@input2 000000                   main@output 000017                  ___ftmul@exp 000016  
            _pid_compute$964 000040               __end_of___ftge 0000A4                  ?_pid_create 000030  
                ?_pid_limits 000009          start_initialization 000000              ??_pid_direction 00000E  
               pid_tune@ssec 00002D                     ??___ftge 000006            __size_of___awtoft 000000  
          __size_of___ftpack 000000                    ___asftadd 000000            __size_of___lltoft 000000  
              __pcstackBANK0 000000                ??_pid_compute 000031                   pid_tune@kd 00002A  
                 pid_tune@ki 000027                   pid_tune@kp 000024          __size_of_pid_create 000000  
        __size_of_pid_limits 000000            __size_of_pid_auto 000000            __size_of_pid_tune 000000  
                   ?___ftadd 00001C                     ?___ftdiv 000011                     ?___ftneg 000008  
          __size_of_tick_get 000000                     ?___ftmul 00000B                   ?___asftadd 00002A  
                   ?_tc_init 000000                     ?_tc_read 000000            pid_compute@dinput 00003D  
                  _tc_init$0 000000                    _tc_init$1 000001                    _tc_read$0 000000  
         _tick_read_internal 000000          __end_of_pid_compute 000424          ?_tick_read_internal 000000  
                  main@tcpl1 000009                    main@tcpl2 00000D                  _INTCON2bits 000FF1  
       ??_tick_read_internal 000000                     __Hrparam 000000*                    __Lrparam 000000* 
            main@pidcontrol1 00001D             __size_of___ftadd 000000             __size_of___ftdiv 000000  
           __size_of___ftneg 000000             __size_of___ftmul 000000                     ___awtoft 000000  
                   ___ftpack 000000                     ___lltoft 000000                 ??_pid_create 000041  
               ??_pid_limits 000011                  ??___asftadd 00002F                     __ptext10 000000  
                   __ptext11 000000                     __ptext12 000000                     __ptext13 000000  
                   __ptext14 000000                     __ptext15 000000                     __ptext16 000000  
                   __ptext17 000000                     __ptext18 000000                  _pid_compute 000000  
              __size_of_main 000000                     _pid_auto 000000                     _pid_tune 000000  
         __end_of_pid_create 000146                     _tick_get 000000           __end_of_pid_limits 0001D4  
                   main@argc 000050                     main@argv 000052                     main@pid1 00001B  
                   main@pid2 000003                   _INTCONbits 000FF2        __end_of_pid_direction 0000E4  
